
hello.elf:     formato del fichero elf32-or1k


Desensamblado de la sección .vectors:

00000000 <_or1k_reset-0x100>:
	...

00000100 <_or1k_reset>:
     100:	18 00 00 00 	l.movhi r0,0x0
     104:	d4 00 00 04 	l.sw 4(r0),r0
     108:	d4 00 00 08 	l.sw 8(r0),r0
     10c:	18 20 00 00 	l.movhi r1,0x0
     110:	18 40 00 00 	l.movhi r2,0x0
     114:	18 60 00 00 	l.movhi r3,0x0
     118:	18 80 00 00 	l.movhi r4,0x0
     11c:	18 a0 00 00 	l.movhi r5,0x0
     120:	18 c0 00 00 	l.movhi r6,0x0
     124:	18 e0 00 00 	l.movhi r7,0x0
     128:	19 00 00 00 	l.movhi r8,0x0
     12c:	19 20 00 00 	l.movhi r9,0x0
     130:	19 40 00 00 	l.movhi r10,0x0
     134:	19 60 00 00 	l.movhi r11,0x0
     138:	19 80 00 00 	l.movhi r12,0x0
     13c:	19 a0 00 00 	l.movhi r13,0x0
     140:	19 c0 00 00 	l.movhi r14,0x0
     144:	19 e0 00 00 	l.movhi r15,0x0
     148:	1a 00 00 00 	l.movhi r16,0x0
     14c:	1a 20 00 00 	l.movhi r17,0x0
     150:	1a 40 00 00 	l.movhi r18,0x0
     154:	1a 60 00 00 	l.movhi r19,0x0
     158:	1a 80 00 00 	l.movhi r20,0x0
     15c:	1a a0 00 00 	l.movhi r21,0x0
     160:	1a c0 00 00 	l.movhi r22,0x0
     164:	1a e0 00 00 	l.movhi r23,0x0
     168:	1b 00 00 00 	l.movhi r24,0x0
     16c:	1b 20 00 00 	l.movhi r25,0x0
     170:	1b 40 00 00 	l.movhi r26,0x0
     174:	1b 60 00 00 	l.movhi r27,0x0
     178:	1b 80 00 00 	l.movhi r28,0x0
     17c:	1b a0 00 00 	l.movhi r29,0x0
     180:	1b c0 00 00 	l.movhi r30,0x0
     184:	1b e0 00 00 	l.movhi r31,0x0
     188:	a8 20 00 01 	l.ori r1,r0,0x1
     18c:	c0 00 08 11 	l.mtspr r0,r1,0x11
     190:	c1 40 00 00 	l.mtspr r0,r0,0x5000
     194:	18 80 00 00 	l.movhi r4,0x0
     198:	a8 84 20 30 	l.ori r4,r4,0x2030
     19c:	44 00 20 00 	l.jr r4
     1a0:	15 00 00 00 	l.nop 0x0
	...
     200:	c0 00 0c 21 	l.mtspr r0,r1,0x421
     204:	c0 00 1c 22 	l.mtspr r0,r3,0x422
     208:	c0 00 24 23 	l.mtspr r0,r4,0x423
     20c:	18 80 00 01 	l.movhi r4,0x1
     210:	a8 84 54 70 	l.ori r4,r4,0x5470
     214:	84 84 00 00 	l.lwz r4,0(r4)
     218:	b4 60 00 80 	l.mfspr r3,r0,0x80
     21c:	b8 63 00 02 	l.slli r3,r3,0x2
     220:	e0 84 18 00 	l.add r4,r4,r3
     224:	84 64 00 00 	l.lwz r3,0(r4)
     228:	9c 63 00 01 	l.addi r3,r3,1
     22c:	d4 04 18 00 	l.sw 0(r4),r3
     230:	bc 03 00 01 	l.sfeqi r3,1
     234:	0c 00 00 0a 	l.bnf 25c <_or1k_reset+0x15c>
     238:	15 00 00 00 	l.nop 0x0
     23c:	18 20 00 01 	l.movhi r1,0x1
     240:	a8 21 54 74 	l.ori r1,r1,0x5474
     244:	84 21 00 00 	l.lwz r1,0(r1)
     248:	b4 60 00 80 	l.mfspr r3,r0,0x80
     24c:	b8 63 00 02 	l.slli r3,r3,0x2
     250:	e0 21 18 00 	l.add r1,r1,r3
     254:	00 00 00 03 	l.j 260 <_or1k_reset+0x160>
     258:	84 21 00 00 	l.lwz r1,0(r1)
     25c:	9c 21 ff 80 	l.addi r1,r1,-128
     260:	9c 21 ff 78 	l.addi r1,r1,-136
     264:	b4 60 04 21 	l.mfspr r3,r0,0x421
     268:	d4 01 18 04 	l.sw 4(r1),r3
     26c:	b4 60 04 22 	l.mfspr r3,r0,0x422
     270:	d4 01 18 0c 	l.sw 12(r1),r3
     274:	b4 80 04 23 	l.mfspr r4,r0,0x423
     278:	d4 01 20 10 	l.sw 16(r1),r4
     27c:	b4 60 00 10 	l.mfspr r3,r0,0x10
     280:	00 00 36 d2 	l.j ddc8 <_or1k_exception_handler>
     284:	b4 80 00 20 	l.mfspr r4,r0,0x20
	...
     300:	c0 00 0c 21 	l.mtspr r0,r1,0x421
     304:	c0 00 1c 22 	l.mtspr r0,r3,0x422
     308:	c0 00 24 23 	l.mtspr r0,r4,0x423
     30c:	18 80 00 01 	l.movhi r4,0x1
     310:	a8 84 54 70 	l.ori r4,r4,0x5470
     314:	84 84 00 00 	l.lwz r4,0(r4)
     318:	b4 60 00 80 	l.mfspr r3,r0,0x80
     31c:	b8 63 00 02 	l.slli r3,r3,0x2
     320:	e0 84 18 00 	l.add r4,r4,r3
     324:	84 64 00 00 	l.lwz r3,0(r4)
     328:	9c 63 00 01 	l.addi r3,r3,1
     32c:	d4 04 18 00 	l.sw 0(r4),r3
     330:	bc 03 00 01 	l.sfeqi r3,1
     334:	0c 00 00 0a 	l.bnf 35c <_or1k_reset+0x25c>
     338:	15 00 00 00 	l.nop 0x0
     33c:	18 20 00 01 	l.movhi r1,0x1
     340:	a8 21 54 74 	l.ori r1,r1,0x5474
     344:	84 21 00 00 	l.lwz r1,0(r1)
     348:	b4 60 00 80 	l.mfspr r3,r0,0x80
     34c:	b8 63 00 02 	l.slli r3,r3,0x2
     350:	e0 21 18 00 	l.add r1,r1,r3
     354:	00 00 00 03 	l.j 360 <_or1k_reset+0x260>
     358:	84 21 00 00 	l.lwz r1,0(r1)
     35c:	9c 21 ff 80 	l.addi r1,r1,-128
     360:	9c 21 ff 78 	l.addi r1,r1,-136
     364:	b4 60 04 21 	l.mfspr r3,r0,0x421
     368:	d4 01 18 04 	l.sw 4(r1),r3
     36c:	b4 60 04 22 	l.mfspr r3,r0,0x422
     370:	d4 01 18 0c 	l.sw 12(r1),r3
     374:	b4 80 04 23 	l.mfspr r4,r0,0x423
     378:	d4 01 20 10 	l.sw 16(r1),r4
     37c:	b4 60 00 10 	l.mfspr r3,r0,0x10
     380:	00 00 36 92 	l.j ddc8 <_or1k_exception_handler>
     384:	b4 80 00 20 	l.mfspr r4,r0,0x20
	...
     400:	c0 00 0c 21 	l.mtspr r0,r1,0x421
     404:	c0 00 1c 22 	l.mtspr r0,r3,0x422
     408:	c0 00 24 23 	l.mtspr r0,r4,0x423
     40c:	18 80 00 01 	l.movhi r4,0x1
     410:	a8 84 54 70 	l.ori r4,r4,0x5470
     414:	84 84 00 00 	l.lwz r4,0(r4)
     418:	b4 60 00 80 	l.mfspr r3,r0,0x80
     41c:	b8 63 00 02 	l.slli r3,r3,0x2
     420:	e0 84 18 00 	l.add r4,r4,r3
     424:	84 64 00 00 	l.lwz r3,0(r4)
     428:	9c 63 00 01 	l.addi r3,r3,1
     42c:	d4 04 18 00 	l.sw 0(r4),r3
     430:	bc 03 00 01 	l.sfeqi r3,1
     434:	0c 00 00 0a 	l.bnf 45c <_or1k_reset+0x35c>
     438:	15 00 00 00 	l.nop 0x0
     43c:	18 20 00 01 	l.movhi r1,0x1
     440:	a8 21 54 74 	l.ori r1,r1,0x5474
     444:	84 21 00 00 	l.lwz r1,0(r1)
     448:	b4 60 00 80 	l.mfspr r3,r0,0x80
     44c:	b8 63 00 02 	l.slli r3,r3,0x2
     450:	e0 21 18 00 	l.add r1,r1,r3
     454:	00 00 00 03 	l.j 460 <_or1k_reset+0x360>
     458:	84 21 00 00 	l.lwz r1,0(r1)
     45c:	9c 21 ff 80 	l.addi r1,r1,-128
     460:	9c 21 ff 78 	l.addi r1,r1,-136
     464:	b4 60 04 21 	l.mfspr r3,r0,0x421
     468:	d4 01 18 04 	l.sw 4(r1),r3
     46c:	b4 60 04 22 	l.mfspr r3,r0,0x422
     470:	d4 01 18 0c 	l.sw 12(r1),r3
     474:	b4 80 04 23 	l.mfspr r4,r0,0x423
     478:	d4 01 20 10 	l.sw 16(r1),r4
     47c:	b4 60 00 10 	l.mfspr r3,r0,0x10
     480:	00 00 36 52 	l.j ddc8 <_or1k_exception_handler>
     484:	b4 80 00 20 	l.mfspr r4,r0,0x20
	...
     500:	c0 00 0c 21 	l.mtspr r0,r1,0x421
     504:	c0 00 1c 22 	l.mtspr r0,r3,0x422
     508:	c0 00 24 23 	l.mtspr r0,r4,0x423
     50c:	18 80 00 01 	l.movhi r4,0x1
     510:	a8 84 54 70 	l.ori r4,r4,0x5470
     514:	84 84 00 00 	l.lwz r4,0(r4)
     518:	b4 60 00 80 	l.mfspr r3,r0,0x80
     51c:	b8 63 00 02 	l.slli r3,r3,0x2
     520:	e0 84 18 00 	l.add r4,r4,r3
     524:	84 64 00 00 	l.lwz r3,0(r4)
     528:	9c 63 00 01 	l.addi r3,r3,1
     52c:	d4 04 18 00 	l.sw 0(r4),r3
     530:	bc 03 00 01 	l.sfeqi r3,1
     534:	0c 00 00 0a 	l.bnf 55c <_or1k_reset+0x45c>
     538:	15 00 00 00 	l.nop 0x0
     53c:	18 20 00 01 	l.movhi r1,0x1
     540:	a8 21 54 74 	l.ori r1,r1,0x5474
     544:	84 21 00 00 	l.lwz r1,0(r1)
     548:	b4 60 00 80 	l.mfspr r3,r0,0x80
     54c:	b8 63 00 02 	l.slli r3,r3,0x2
     550:	e0 21 18 00 	l.add r1,r1,r3
     554:	00 00 00 03 	l.j 560 <_or1k_reset+0x460>
     558:	84 21 00 00 	l.lwz r1,0(r1)
     55c:	9c 21 ff 80 	l.addi r1,r1,-128
     560:	9c 21 ff 78 	l.addi r1,r1,-136
     564:	b4 60 04 21 	l.mfspr r3,r0,0x421
     568:	d4 01 18 04 	l.sw 4(r1),r3
     56c:	b4 60 04 22 	l.mfspr r3,r0,0x422
     570:	d4 01 18 0c 	l.sw 12(r1),r3
     574:	b4 80 04 23 	l.mfspr r4,r0,0x423
     578:	d4 01 20 10 	l.sw 16(r1),r4
     57c:	b4 60 00 10 	l.mfspr r3,r0,0x10
     580:	00 00 36 12 	l.j ddc8 <_or1k_exception_handler>
     584:	b4 80 00 20 	l.mfspr r4,r0,0x20
	...
     600:	c0 00 0c 21 	l.mtspr r0,r1,0x421
     604:	c0 00 1c 22 	l.mtspr r0,r3,0x422
     608:	c0 00 24 23 	l.mtspr r0,r4,0x423
     60c:	18 80 00 01 	l.movhi r4,0x1
     610:	a8 84 54 70 	l.ori r4,r4,0x5470
     614:	84 84 00 00 	l.lwz r4,0(r4)
     618:	b4 60 00 80 	l.mfspr r3,r0,0x80
     61c:	b8 63 00 02 	l.slli r3,r3,0x2
     620:	e0 84 18 00 	l.add r4,r4,r3
     624:	84 64 00 00 	l.lwz r3,0(r4)
     628:	9c 63 00 01 	l.addi r3,r3,1
     62c:	d4 04 18 00 	l.sw 0(r4),r3
     630:	bc 03 00 01 	l.sfeqi r3,1
     634:	0c 00 00 0a 	l.bnf 65c <_or1k_reset+0x55c>
     638:	15 00 00 00 	l.nop 0x0
     63c:	18 20 00 01 	l.movhi r1,0x1
     640:	a8 21 54 74 	l.ori r1,r1,0x5474
     644:	84 21 00 00 	l.lwz r1,0(r1)
     648:	b4 60 00 80 	l.mfspr r3,r0,0x80
     64c:	b8 63 00 02 	l.slli r3,r3,0x2
     650:	e0 21 18 00 	l.add r1,r1,r3
     654:	00 00 00 03 	l.j 660 <_or1k_reset+0x560>
     658:	84 21 00 00 	l.lwz r1,0(r1)
     65c:	9c 21 ff 80 	l.addi r1,r1,-128
     660:	9c 21 ff 78 	l.addi r1,r1,-136
     664:	b4 60 04 21 	l.mfspr r3,r0,0x421
     668:	d4 01 18 04 	l.sw 4(r1),r3
     66c:	b4 60 04 22 	l.mfspr r3,r0,0x422
     670:	d4 01 18 0c 	l.sw 12(r1),r3
     674:	b4 80 04 23 	l.mfspr r4,r0,0x423
     678:	d4 01 20 10 	l.sw 16(r1),r4
     67c:	b4 60 00 10 	l.mfspr r3,r0,0x10
     680:	00 00 35 d2 	l.j ddc8 <_or1k_exception_handler>
     684:	b4 80 00 20 	l.mfspr r4,r0,0x20
	...
     700:	c0 00 0c 21 	l.mtspr r0,r1,0x421
     704:	c0 00 1c 22 	l.mtspr r0,r3,0x422
     708:	c0 00 24 23 	l.mtspr r0,r4,0x423
     70c:	18 80 00 01 	l.movhi r4,0x1
     710:	a8 84 54 70 	l.ori r4,r4,0x5470
     714:	84 84 00 00 	l.lwz r4,0(r4)
     718:	b4 60 00 80 	l.mfspr r3,r0,0x80
     71c:	b8 63 00 02 	l.slli r3,r3,0x2
     720:	e0 84 18 00 	l.add r4,r4,r3
     724:	84 64 00 00 	l.lwz r3,0(r4)
     728:	9c 63 00 01 	l.addi r3,r3,1
     72c:	d4 04 18 00 	l.sw 0(r4),r3
     730:	bc 03 00 01 	l.sfeqi r3,1
     734:	0c 00 00 0a 	l.bnf 75c <_or1k_reset+0x65c>
     738:	15 00 00 00 	l.nop 0x0
     73c:	18 20 00 01 	l.movhi r1,0x1
     740:	a8 21 54 74 	l.ori r1,r1,0x5474
     744:	84 21 00 00 	l.lwz r1,0(r1)
     748:	b4 60 00 80 	l.mfspr r3,r0,0x80
     74c:	b8 63 00 02 	l.slli r3,r3,0x2
     750:	e0 21 18 00 	l.add r1,r1,r3
     754:	00 00 00 03 	l.j 760 <_or1k_reset+0x660>
     758:	84 21 00 00 	l.lwz r1,0(r1)
     75c:	9c 21 ff 80 	l.addi r1,r1,-128
     760:	9c 21 ff 78 	l.addi r1,r1,-136
     764:	b4 60 04 21 	l.mfspr r3,r0,0x421
     768:	d4 01 18 04 	l.sw 4(r1),r3
     76c:	b4 60 04 22 	l.mfspr r3,r0,0x422
     770:	d4 01 18 0c 	l.sw 12(r1),r3
     774:	b4 80 04 23 	l.mfspr r4,r0,0x423
     778:	d4 01 20 10 	l.sw 16(r1),r4
     77c:	b4 60 00 10 	l.mfspr r3,r0,0x10
     780:	00 00 35 92 	l.j ddc8 <_or1k_exception_handler>
     784:	b4 80 00 20 	l.mfspr r4,r0,0x20
	...
     800:	c0 00 0c 21 	l.mtspr r0,r1,0x421
     804:	c0 00 1c 22 	l.mtspr r0,r3,0x422
     808:	c0 00 24 23 	l.mtspr r0,r4,0x423
     80c:	18 80 00 01 	l.movhi r4,0x1
     810:	a8 84 54 70 	l.ori r4,r4,0x5470
     814:	84 84 00 00 	l.lwz r4,0(r4)
     818:	b4 60 00 80 	l.mfspr r3,r0,0x80
     81c:	b8 63 00 02 	l.slli r3,r3,0x2
     820:	e0 84 18 00 	l.add r4,r4,r3
     824:	84 64 00 00 	l.lwz r3,0(r4)
     828:	9c 63 00 01 	l.addi r3,r3,1
     82c:	d4 04 18 00 	l.sw 0(r4),r3
     830:	bc 03 00 01 	l.sfeqi r3,1
     834:	0c 00 00 0a 	l.bnf 85c <_or1k_reset+0x75c>
     838:	15 00 00 00 	l.nop 0x0
     83c:	18 20 00 01 	l.movhi r1,0x1
     840:	a8 21 54 74 	l.ori r1,r1,0x5474
     844:	84 21 00 00 	l.lwz r1,0(r1)
     848:	b4 60 00 80 	l.mfspr r3,r0,0x80
     84c:	b8 63 00 02 	l.slli r3,r3,0x2
     850:	e0 21 18 00 	l.add r1,r1,r3
     854:	00 00 00 03 	l.j 860 <_or1k_reset+0x760>
     858:	84 21 00 00 	l.lwz r1,0(r1)
     85c:	9c 21 ff 80 	l.addi r1,r1,-128
     860:	9c 21 ff 78 	l.addi r1,r1,-136
     864:	b4 60 04 21 	l.mfspr r3,r0,0x421
     868:	d4 01 18 04 	l.sw 4(r1),r3
     86c:	b4 60 04 22 	l.mfspr r3,r0,0x422
     870:	d4 01 18 0c 	l.sw 12(r1),r3
     874:	b4 80 04 23 	l.mfspr r4,r0,0x423
     878:	d4 01 20 10 	l.sw 16(r1),r4
     87c:	b4 60 00 10 	l.mfspr r3,r0,0x10
     880:	00 00 35 52 	l.j ddc8 <_or1k_exception_handler>
     884:	b4 80 00 20 	l.mfspr r4,r0,0x20
	...
     900:	c0 00 0c 21 	l.mtspr r0,r1,0x421
     904:	c0 00 1c 22 	l.mtspr r0,r3,0x422
     908:	c0 00 24 23 	l.mtspr r0,r4,0x423
     90c:	18 80 00 01 	l.movhi r4,0x1
     910:	a8 84 54 70 	l.ori r4,r4,0x5470
     914:	84 84 00 00 	l.lwz r4,0(r4)
     918:	b4 60 00 80 	l.mfspr r3,r0,0x80
     91c:	b8 63 00 02 	l.slli r3,r3,0x2
     920:	e0 84 18 00 	l.add r4,r4,r3
     924:	84 64 00 00 	l.lwz r3,0(r4)
     928:	9c 63 00 01 	l.addi r3,r3,1
     92c:	d4 04 18 00 	l.sw 0(r4),r3
     930:	bc 03 00 01 	l.sfeqi r3,1
     934:	0c 00 00 0a 	l.bnf 95c <_or1k_reset+0x85c>
     938:	15 00 00 00 	l.nop 0x0
     93c:	18 20 00 01 	l.movhi r1,0x1
     940:	a8 21 54 74 	l.ori r1,r1,0x5474
     944:	84 21 00 00 	l.lwz r1,0(r1)
     948:	b4 60 00 80 	l.mfspr r3,r0,0x80
     94c:	b8 63 00 02 	l.slli r3,r3,0x2
     950:	e0 21 18 00 	l.add r1,r1,r3
     954:	00 00 00 03 	l.j 960 <_or1k_reset+0x860>
     958:	84 21 00 00 	l.lwz r1,0(r1)
     95c:	9c 21 ff 80 	l.addi r1,r1,-128
     960:	9c 21 ff 78 	l.addi r1,r1,-136
     964:	b4 60 04 21 	l.mfspr r3,r0,0x421
     968:	d4 01 18 04 	l.sw 4(r1),r3
     96c:	b4 60 04 22 	l.mfspr r3,r0,0x422
     970:	d4 01 18 0c 	l.sw 12(r1),r3
     974:	b4 80 04 23 	l.mfspr r4,r0,0x423
     978:	d4 01 20 10 	l.sw 16(r1),r4
     97c:	b4 60 00 10 	l.mfspr r3,r0,0x10
     980:	00 00 35 12 	l.j ddc8 <_or1k_exception_handler>
     984:	b4 80 00 20 	l.mfspr r4,r0,0x20
	...
     a00:	c0 00 0c 21 	l.mtspr r0,r1,0x421
     a04:	c0 00 1c 22 	l.mtspr r0,r3,0x422
     a08:	c0 00 24 23 	l.mtspr r0,r4,0x423
     a0c:	18 80 00 01 	l.movhi r4,0x1
     a10:	a8 84 54 70 	l.ori r4,r4,0x5470
     a14:	84 84 00 00 	l.lwz r4,0(r4)
     a18:	b4 60 00 80 	l.mfspr r3,r0,0x80
     a1c:	b8 63 00 02 	l.slli r3,r3,0x2
     a20:	e0 84 18 00 	l.add r4,r4,r3
     a24:	84 64 00 00 	l.lwz r3,0(r4)
     a28:	9c 63 00 01 	l.addi r3,r3,1
     a2c:	d4 04 18 00 	l.sw 0(r4),r3
     a30:	bc 03 00 01 	l.sfeqi r3,1
     a34:	0c 00 00 0a 	l.bnf a5c <_or1k_reset+0x95c>
     a38:	15 00 00 00 	l.nop 0x0
     a3c:	18 20 00 01 	l.movhi r1,0x1
     a40:	a8 21 54 74 	l.ori r1,r1,0x5474
     a44:	84 21 00 00 	l.lwz r1,0(r1)
     a48:	b4 60 00 80 	l.mfspr r3,r0,0x80
     a4c:	b8 63 00 02 	l.slli r3,r3,0x2
     a50:	e0 21 18 00 	l.add r1,r1,r3
     a54:	00 00 00 03 	l.j a60 <_or1k_reset+0x960>
     a58:	84 21 00 00 	l.lwz r1,0(r1)
     a5c:	9c 21 ff 80 	l.addi r1,r1,-128
     a60:	9c 21 ff 78 	l.addi r1,r1,-136
     a64:	b4 60 04 21 	l.mfspr r3,r0,0x421
     a68:	d4 01 18 04 	l.sw 4(r1),r3
     a6c:	b4 60 04 22 	l.mfspr r3,r0,0x422
     a70:	d4 01 18 0c 	l.sw 12(r1),r3
     a74:	b4 80 04 23 	l.mfspr r4,r0,0x423
     a78:	d4 01 20 10 	l.sw 16(r1),r4
     a7c:	b4 60 00 10 	l.mfspr r3,r0,0x10
     a80:	00 00 34 d2 	l.j ddc8 <_or1k_exception_handler>
     a84:	b4 80 00 20 	l.mfspr r4,r0,0x20
	...
     b00:	c0 00 0c 21 	l.mtspr r0,r1,0x421
     b04:	c0 00 1c 22 	l.mtspr r0,r3,0x422
     b08:	c0 00 24 23 	l.mtspr r0,r4,0x423
     b0c:	18 80 00 01 	l.movhi r4,0x1
     b10:	a8 84 54 70 	l.ori r4,r4,0x5470
     b14:	84 84 00 00 	l.lwz r4,0(r4)
     b18:	b4 60 00 80 	l.mfspr r3,r0,0x80
     b1c:	b8 63 00 02 	l.slli r3,r3,0x2
     b20:	e0 84 18 00 	l.add r4,r4,r3
     b24:	84 64 00 00 	l.lwz r3,0(r4)
     b28:	9c 63 00 01 	l.addi r3,r3,1
     b2c:	d4 04 18 00 	l.sw 0(r4),r3
     b30:	bc 03 00 01 	l.sfeqi r3,1
     b34:	0c 00 00 0a 	l.bnf b5c <_or1k_reset+0xa5c>
     b38:	15 00 00 00 	l.nop 0x0
     b3c:	18 20 00 01 	l.movhi r1,0x1
     b40:	a8 21 54 74 	l.ori r1,r1,0x5474
     b44:	84 21 00 00 	l.lwz r1,0(r1)
     b48:	b4 60 00 80 	l.mfspr r3,r0,0x80
     b4c:	b8 63 00 02 	l.slli r3,r3,0x2
     b50:	e0 21 18 00 	l.add r1,r1,r3
     b54:	00 00 00 03 	l.j b60 <_or1k_reset+0xa60>
     b58:	84 21 00 00 	l.lwz r1,0(r1)
     b5c:	9c 21 ff 80 	l.addi r1,r1,-128
     b60:	9c 21 ff 78 	l.addi r1,r1,-136
     b64:	b4 60 04 21 	l.mfspr r3,r0,0x421
     b68:	d4 01 18 04 	l.sw 4(r1),r3
     b6c:	b4 60 04 22 	l.mfspr r3,r0,0x422
     b70:	d4 01 18 0c 	l.sw 12(r1),r3
     b74:	b4 80 04 23 	l.mfspr r4,r0,0x423
     b78:	d4 01 20 10 	l.sw 16(r1),r4
     b7c:	b4 60 00 10 	l.mfspr r3,r0,0x10
     b80:	00 00 34 92 	l.j ddc8 <_or1k_exception_handler>
     b84:	b4 80 00 20 	l.mfspr r4,r0,0x20
	...
     c00:	c0 00 0c 21 	l.mtspr r0,r1,0x421
     c04:	c0 00 1c 22 	l.mtspr r0,r3,0x422
     c08:	c0 00 24 23 	l.mtspr r0,r4,0x423
     c0c:	18 80 00 01 	l.movhi r4,0x1
     c10:	a8 84 54 70 	l.ori r4,r4,0x5470
     c14:	84 84 00 00 	l.lwz r4,0(r4)
     c18:	b4 60 00 80 	l.mfspr r3,r0,0x80
     c1c:	b8 63 00 02 	l.slli r3,r3,0x2
     c20:	e0 84 18 00 	l.add r4,r4,r3
     c24:	84 64 00 00 	l.lwz r3,0(r4)
     c28:	9c 63 00 01 	l.addi r3,r3,1
     c2c:	d4 04 18 00 	l.sw 0(r4),r3
     c30:	bc 03 00 01 	l.sfeqi r3,1
     c34:	0c 00 00 0a 	l.bnf c5c <_or1k_reset+0xb5c>
     c38:	15 00 00 00 	l.nop 0x0
     c3c:	18 20 00 01 	l.movhi r1,0x1
     c40:	a8 21 54 74 	l.ori r1,r1,0x5474
     c44:	84 21 00 00 	l.lwz r1,0(r1)
     c48:	b4 60 00 80 	l.mfspr r3,r0,0x80
     c4c:	b8 63 00 02 	l.slli r3,r3,0x2
     c50:	e0 21 18 00 	l.add r1,r1,r3
     c54:	00 00 00 03 	l.j c60 <_or1k_reset+0xb60>
     c58:	84 21 00 00 	l.lwz r1,0(r1)
     c5c:	9c 21 ff 80 	l.addi r1,r1,-128
     c60:	9c 21 ff 78 	l.addi r1,r1,-136
     c64:	b4 60 04 21 	l.mfspr r3,r0,0x421
     c68:	d4 01 18 04 	l.sw 4(r1),r3
     c6c:	b4 60 04 22 	l.mfspr r3,r0,0x422
     c70:	d4 01 18 0c 	l.sw 12(r1),r3
     c74:	b4 80 04 23 	l.mfspr r4,r0,0x423
     c78:	d4 01 20 10 	l.sw 16(r1),r4
     c7c:	b4 60 00 10 	l.mfspr r3,r0,0x10
     c80:	00 00 34 52 	l.j ddc8 <_or1k_exception_handler>
     c84:	b4 80 00 20 	l.mfspr r4,r0,0x20
	...
     d00:	c0 00 0c 21 	l.mtspr r0,r1,0x421
     d04:	c0 00 1c 22 	l.mtspr r0,r3,0x422
     d08:	c0 00 24 23 	l.mtspr r0,r4,0x423
     d0c:	18 80 00 01 	l.movhi r4,0x1
     d10:	a8 84 54 70 	l.ori r4,r4,0x5470
     d14:	84 84 00 00 	l.lwz r4,0(r4)
     d18:	b4 60 00 80 	l.mfspr r3,r0,0x80
     d1c:	b8 63 00 02 	l.slli r3,r3,0x2
     d20:	e0 84 18 00 	l.add r4,r4,r3
     d24:	84 64 00 00 	l.lwz r3,0(r4)
     d28:	9c 63 00 01 	l.addi r3,r3,1
     d2c:	d4 04 18 00 	l.sw 0(r4),r3
     d30:	bc 03 00 01 	l.sfeqi r3,1
     d34:	0c 00 00 0a 	l.bnf d5c <_or1k_reset+0xc5c>
     d38:	15 00 00 00 	l.nop 0x0
     d3c:	18 20 00 01 	l.movhi r1,0x1
     d40:	a8 21 54 74 	l.ori r1,r1,0x5474
     d44:	84 21 00 00 	l.lwz r1,0(r1)
     d48:	b4 60 00 80 	l.mfspr r3,r0,0x80
     d4c:	b8 63 00 02 	l.slli r3,r3,0x2
     d50:	e0 21 18 00 	l.add r1,r1,r3
     d54:	00 00 00 03 	l.j d60 <_or1k_reset+0xc60>
     d58:	84 21 00 00 	l.lwz r1,0(r1)
     d5c:	9c 21 ff 80 	l.addi r1,r1,-128
     d60:	9c 21 ff 78 	l.addi r1,r1,-136
     d64:	b4 60 04 21 	l.mfspr r3,r0,0x421
     d68:	d4 01 18 04 	l.sw 4(r1),r3
     d6c:	b4 60 04 22 	l.mfspr r3,r0,0x422
     d70:	d4 01 18 0c 	l.sw 12(r1),r3
     d74:	b4 80 04 23 	l.mfspr r4,r0,0x423
     d78:	d4 01 20 10 	l.sw 16(r1),r4
     d7c:	b4 60 00 10 	l.mfspr r3,r0,0x10
     d80:	00 00 34 12 	l.j ddc8 <_or1k_exception_handler>
     d84:	b4 80 00 20 	l.mfspr r4,r0,0x20
	...
     e00:	c0 00 0c 21 	l.mtspr r0,r1,0x421
     e04:	c0 00 1c 22 	l.mtspr r0,r3,0x422
     e08:	c0 00 24 23 	l.mtspr r0,r4,0x423
     e0c:	18 80 00 01 	l.movhi r4,0x1
     e10:	a8 84 54 70 	l.ori r4,r4,0x5470
     e14:	84 84 00 00 	l.lwz r4,0(r4)
     e18:	b4 60 00 80 	l.mfspr r3,r0,0x80
     e1c:	b8 63 00 02 	l.slli r3,r3,0x2
     e20:	e0 84 18 00 	l.add r4,r4,r3
     e24:	84 64 00 00 	l.lwz r3,0(r4)
     e28:	9c 63 00 01 	l.addi r3,r3,1
     e2c:	d4 04 18 00 	l.sw 0(r4),r3
     e30:	bc 03 00 01 	l.sfeqi r3,1
     e34:	0c 00 00 0a 	l.bnf e5c <_or1k_reset+0xd5c>
     e38:	15 00 00 00 	l.nop 0x0
     e3c:	18 20 00 01 	l.movhi r1,0x1
     e40:	a8 21 54 74 	l.ori r1,r1,0x5474
     e44:	84 21 00 00 	l.lwz r1,0(r1)
     e48:	b4 60 00 80 	l.mfspr r3,r0,0x80
     e4c:	b8 63 00 02 	l.slli r3,r3,0x2
     e50:	e0 21 18 00 	l.add r1,r1,r3
     e54:	00 00 00 03 	l.j e60 <_or1k_reset+0xd60>
     e58:	84 21 00 00 	l.lwz r1,0(r1)
     e5c:	9c 21 ff 80 	l.addi r1,r1,-128
     e60:	9c 21 ff 78 	l.addi r1,r1,-136
     e64:	b4 60 04 21 	l.mfspr r3,r0,0x421
     e68:	d4 01 18 04 	l.sw 4(r1),r3
     e6c:	b4 60 04 22 	l.mfspr r3,r0,0x422
     e70:	d4 01 18 0c 	l.sw 12(r1),r3
     e74:	b4 80 04 23 	l.mfspr r4,r0,0x423
     e78:	d4 01 20 10 	l.sw 16(r1),r4
     e7c:	b4 60 00 10 	l.mfspr r3,r0,0x10
     e80:	00 00 33 d2 	l.j ddc8 <_or1k_exception_handler>
     e84:	b4 80 00 20 	l.mfspr r4,r0,0x20
	...
     f00:	c0 00 0c 21 	l.mtspr r0,r1,0x421
     f04:	c0 00 1c 22 	l.mtspr r0,r3,0x422
     f08:	c0 00 24 23 	l.mtspr r0,r4,0x423
     f0c:	18 80 00 01 	l.movhi r4,0x1
     f10:	a8 84 54 70 	l.ori r4,r4,0x5470
     f14:	84 84 00 00 	l.lwz r4,0(r4)
     f18:	b4 60 00 80 	l.mfspr r3,r0,0x80
     f1c:	b8 63 00 02 	l.slli r3,r3,0x2
     f20:	e0 84 18 00 	l.add r4,r4,r3
     f24:	84 64 00 00 	l.lwz r3,0(r4)
     f28:	9c 63 00 01 	l.addi r3,r3,1
     f2c:	d4 04 18 00 	l.sw 0(r4),r3
     f30:	bc 03 00 01 	l.sfeqi r3,1
     f34:	0c 00 00 0a 	l.bnf f5c <_or1k_reset+0xe5c>
     f38:	15 00 00 00 	l.nop 0x0
     f3c:	18 20 00 01 	l.movhi r1,0x1
     f40:	a8 21 54 74 	l.ori r1,r1,0x5474
     f44:	84 21 00 00 	l.lwz r1,0(r1)
     f48:	b4 60 00 80 	l.mfspr r3,r0,0x80
     f4c:	b8 63 00 02 	l.slli r3,r3,0x2
     f50:	e0 21 18 00 	l.add r1,r1,r3
     f54:	00 00 00 03 	l.j f60 <_or1k_reset+0xe60>
     f58:	84 21 00 00 	l.lwz r1,0(r1)
     f5c:	9c 21 ff 80 	l.addi r1,r1,-128
     f60:	9c 21 ff 78 	l.addi r1,r1,-136
     f64:	b4 60 04 21 	l.mfspr r3,r0,0x421
     f68:	d4 01 18 04 	l.sw 4(r1),r3
     f6c:	b4 60 04 22 	l.mfspr r3,r0,0x422
     f70:	d4 01 18 0c 	l.sw 12(r1),r3
     f74:	b4 80 04 23 	l.mfspr r4,r0,0x423
     f78:	d4 01 20 10 	l.sw 16(r1),r4
     f7c:	b4 60 00 10 	l.mfspr r3,r0,0x10
     f80:	00 00 33 92 	l.j ddc8 <_or1k_exception_handler>
     f84:	b4 80 00 20 	l.mfspr r4,r0,0x20
	...
    1000:	c0 00 0c 21 	l.mtspr r0,r1,0x421
    1004:	c0 00 1c 22 	l.mtspr r0,r3,0x422
    1008:	c0 00 24 23 	l.mtspr r0,r4,0x423
    100c:	18 80 00 01 	l.movhi r4,0x1
    1010:	a8 84 54 70 	l.ori r4,r4,0x5470
    1014:	84 84 00 00 	l.lwz r4,0(r4)
    1018:	b4 60 00 80 	l.mfspr r3,r0,0x80
    101c:	b8 63 00 02 	l.slli r3,r3,0x2
    1020:	e0 84 18 00 	l.add r4,r4,r3
    1024:	84 64 00 00 	l.lwz r3,0(r4)
    1028:	9c 63 00 01 	l.addi r3,r3,1
    102c:	d4 04 18 00 	l.sw 0(r4),r3
    1030:	bc 03 00 01 	l.sfeqi r3,1
    1034:	0c 00 00 0a 	l.bnf 105c <_or1k_reset+0xf5c>
    1038:	15 00 00 00 	l.nop 0x0
    103c:	18 20 00 01 	l.movhi r1,0x1
    1040:	a8 21 54 74 	l.ori r1,r1,0x5474
    1044:	84 21 00 00 	l.lwz r1,0(r1)
    1048:	b4 60 00 80 	l.mfspr r3,r0,0x80
    104c:	b8 63 00 02 	l.slli r3,r3,0x2
    1050:	e0 21 18 00 	l.add r1,r1,r3
    1054:	00 00 00 03 	l.j 1060 <_or1k_reset+0xf60>
    1058:	84 21 00 00 	l.lwz r1,0(r1)
    105c:	9c 21 ff 80 	l.addi r1,r1,-128
    1060:	9c 21 ff 78 	l.addi r1,r1,-136
    1064:	b4 60 04 21 	l.mfspr r3,r0,0x421
    1068:	d4 01 18 04 	l.sw 4(r1),r3
    106c:	b4 60 04 22 	l.mfspr r3,r0,0x422
    1070:	d4 01 18 0c 	l.sw 12(r1),r3
    1074:	b4 80 04 23 	l.mfspr r4,r0,0x423
    1078:	d4 01 20 10 	l.sw 16(r1),r4
    107c:	b4 60 00 10 	l.mfspr r3,r0,0x10
    1080:	00 00 33 52 	l.j ddc8 <_or1k_exception_handler>
    1084:	b4 80 00 20 	l.mfspr r4,r0,0x20
	...
    1100:	c0 00 0c 21 	l.mtspr r0,r1,0x421
    1104:	c0 00 1c 22 	l.mtspr r0,r3,0x422
    1108:	c0 00 24 23 	l.mtspr r0,r4,0x423
    110c:	18 80 00 01 	l.movhi r4,0x1
    1110:	a8 84 54 70 	l.ori r4,r4,0x5470
    1114:	84 84 00 00 	l.lwz r4,0(r4)
    1118:	b4 60 00 80 	l.mfspr r3,r0,0x80
    111c:	b8 63 00 02 	l.slli r3,r3,0x2
    1120:	e0 84 18 00 	l.add r4,r4,r3
    1124:	84 64 00 00 	l.lwz r3,0(r4)
    1128:	9c 63 00 01 	l.addi r3,r3,1
    112c:	d4 04 18 00 	l.sw 0(r4),r3
    1130:	bc 03 00 01 	l.sfeqi r3,1
    1134:	0c 00 00 0a 	l.bnf 115c <_or1k_reset+0x105c>
    1138:	15 00 00 00 	l.nop 0x0
    113c:	18 20 00 01 	l.movhi r1,0x1
    1140:	a8 21 54 74 	l.ori r1,r1,0x5474
    1144:	84 21 00 00 	l.lwz r1,0(r1)
    1148:	b4 60 00 80 	l.mfspr r3,r0,0x80
    114c:	b8 63 00 02 	l.slli r3,r3,0x2
    1150:	e0 21 18 00 	l.add r1,r1,r3
    1154:	00 00 00 03 	l.j 1160 <_or1k_reset+0x1060>
    1158:	84 21 00 00 	l.lwz r1,0(r1)
    115c:	9c 21 ff 80 	l.addi r1,r1,-128
    1160:	9c 21 ff 78 	l.addi r1,r1,-136
    1164:	b4 60 04 21 	l.mfspr r3,r0,0x421
    1168:	d4 01 18 04 	l.sw 4(r1),r3
    116c:	b4 60 04 22 	l.mfspr r3,r0,0x422
    1170:	d4 01 18 0c 	l.sw 12(r1),r3
    1174:	b4 80 04 23 	l.mfspr r4,r0,0x423
    1178:	d4 01 20 10 	l.sw 16(r1),r4
    117c:	b4 60 00 10 	l.mfspr r3,r0,0x10
    1180:	00 00 33 12 	l.j ddc8 <_or1k_exception_handler>
    1184:	b4 80 00 20 	l.mfspr r4,r0,0x20
	...
    1200:	c0 00 0c 21 	l.mtspr r0,r1,0x421
    1204:	c0 00 1c 22 	l.mtspr r0,r3,0x422
    1208:	c0 00 24 23 	l.mtspr r0,r4,0x423
    120c:	18 80 00 01 	l.movhi r4,0x1
    1210:	a8 84 54 70 	l.ori r4,r4,0x5470
    1214:	84 84 00 00 	l.lwz r4,0(r4)
    1218:	b4 60 00 80 	l.mfspr r3,r0,0x80
    121c:	b8 63 00 02 	l.slli r3,r3,0x2
    1220:	e0 84 18 00 	l.add r4,r4,r3
    1224:	84 64 00 00 	l.lwz r3,0(r4)
    1228:	9c 63 00 01 	l.addi r3,r3,1
    122c:	d4 04 18 00 	l.sw 0(r4),r3
    1230:	bc 03 00 01 	l.sfeqi r3,1
    1234:	0c 00 00 0a 	l.bnf 125c <_or1k_reset+0x115c>
    1238:	15 00 00 00 	l.nop 0x0
    123c:	18 20 00 01 	l.movhi r1,0x1
    1240:	a8 21 54 74 	l.ori r1,r1,0x5474
    1244:	84 21 00 00 	l.lwz r1,0(r1)
    1248:	b4 60 00 80 	l.mfspr r3,r0,0x80
    124c:	b8 63 00 02 	l.slli r3,r3,0x2
    1250:	e0 21 18 00 	l.add r1,r1,r3
    1254:	00 00 00 03 	l.j 1260 <_or1k_reset+0x1160>
    1258:	84 21 00 00 	l.lwz r1,0(r1)
    125c:	9c 21 ff 80 	l.addi r1,r1,-128
    1260:	9c 21 ff 78 	l.addi r1,r1,-136
    1264:	b4 60 04 21 	l.mfspr r3,r0,0x421
    1268:	d4 01 18 04 	l.sw 4(r1),r3
    126c:	b4 60 04 22 	l.mfspr r3,r0,0x422
    1270:	d4 01 18 0c 	l.sw 12(r1),r3
    1274:	b4 80 04 23 	l.mfspr r4,r0,0x423
    1278:	d4 01 20 10 	l.sw 16(r1),r4
    127c:	b4 60 00 10 	l.mfspr r3,r0,0x10
    1280:	00 00 32 d2 	l.j ddc8 <_or1k_exception_handler>
    1284:	b4 80 00 20 	l.mfspr r4,r0,0x20
	...
    1300:	c0 00 0c 21 	l.mtspr r0,r1,0x421
    1304:	c0 00 1c 22 	l.mtspr r0,r3,0x422
    1308:	c0 00 24 23 	l.mtspr r0,r4,0x423
    130c:	18 80 00 01 	l.movhi r4,0x1
    1310:	a8 84 54 70 	l.ori r4,r4,0x5470
    1314:	84 84 00 00 	l.lwz r4,0(r4)
    1318:	b4 60 00 80 	l.mfspr r3,r0,0x80
    131c:	b8 63 00 02 	l.slli r3,r3,0x2
    1320:	e0 84 18 00 	l.add r4,r4,r3
    1324:	84 64 00 00 	l.lwz r3,0(r4)
    1328:	9c 63 00 01 	l.addi r3,r3,1
    132c:	d4 04 18 00 	l.sw 0(r4),r3
    1330:	bc 03 00 01 	l.sfeqi r3,1
    1334:	0c 00 00 0a 	l.bnf 135c <_or1k_reset+0x125c>
    1338:	15 00 00 00 	l.nop 0x0
    133c:	18 20 00 01 	l.movhi r1,0x1
    1340:	a8 21 54 74 	l.ori r1,r1,0x5474
    1344:	84 21 00 00 	l.lwz r1,0(r1)
    1348:	b4 60 00 80 	l.mfspr r3,r0,0x80
    134c:	b8 63 00 02 	l.slli r3,r3,0x2
    1350:	e0 21 18 00 	l.add r1,r1,r3
    1354:	00 00 00 03 	l.j 1360 <_or1k_reset+0x1260>
    1358:	84 21 00 00 	l.lwz r1,0(r1)
    135c:	9c 21 ff 80 	l.addi r1,r1,-128
    1360:	9c 21 ff 78 	l.addi r1,r1,-136
    1364:	b4 60 04 21 	l.mfspr r3,r0,0x421
    1368:	d4 01 18 04 	l.sw 4(r1),r3
    136c:	b4 60 04 22 	l.mfspr r3,r0,0x422
    1370:	d4 01 18 0c 	l.sw 12(r1),r3
    1374:	b4 80 04 23 	l.mfspr r4,r0,0x423
    1378:	d4 01 20 10 	l.sw 16(r1),r4
    137c:	b4 60 00 10 	l.mfspr r3,r0,0x10
    1380:	00 00 32 92 	l.j ddc8 <_or1k_exception_handler>
    1384:	b4 80 00 20 	l.mfspr r4,r0,0x20
	...
    1400:	c0 00 0c 21 	l.mtspr r0,r1,0x421
    1404:	c0 00 1c 22 	l.mtspr r0,r3,0x422
    1408:	c0 00 24 23 	l.mtspr r0,r4,0x423
    140c:	18 80 00 01 	l.movhi r4,0x1
    1410:	a8 84 54 70 	l.ori r4,r4,0x5470
    1414:	84 84 00 00 	l.lwz r4,0(r4)
    1418:	b4 60 00 80 	l.mfspr r3,r0,0x80
    141c:	b8 63 00 02 	l.slli r3,r3,0x2
    1420:	e0 84 18 00 	l.add r4,r4,r3
    1424:	84 64 00 00 	l.lwz r3,0(r4)
    1428:	9c 63 00 01 	l.addi r3,r3,1
    142c:	d4 04 18 00 	l.sw 0(r4),r3
    1430:	bc 03 00 01 	l.sfeqi r3,1
    1434:	0c 00 00 0a 	l.bnf 145c <_or1k_reset+0x135c>
    1438:	15 00 00 00 	l.nop 0x0
    143c:	18 20 00 01 	l.movhi r1,0x1
    1440:	a8 21 54 74 	l.ori r1,r1,0x5474
    1444:	84 21 00 00 	l.lwz r1,0(r1)
    1448:	b4 60 00 80 	l.mfspr r3,r0,0x80
    144c:	b8 63 00 02 	l.slli r3,r3,0x2
    1450:	e0 21 18 00 	l.add r1,r1,r3
    1454:	00 00 00 03 	l.j 1460 <_or1k_reset+0x1360>
    1458:	84 21 00 00 	l.lwz r1,0(r1)
    145c:	9c 21 ff 80 	l.addi r1,r1,-128
    1460:	9c 21 ff 78 	l.addi r1,r1,-136
    1464:	b4 60 04 21 	l.mfspr r3,r0,0x421
    1468:	d4 01 18 04 	l.sw 4(r1),r3
    146c:	b4 60 04 22 	l.mfspr r3,r0,0x422
    1470:	d4 01 18 0c 	l.sw 12(r1),r3
    1474:	b4 80 04 23 	l.mfspr r4,r0,0x423
    1478:	d4 01 20 10 	l.sw 16(r1),r4
    147c:	b4 60 00 10 	l.mfspr r3,r0,0x10
    1480:	00 00 32 52 	l.j ddc8 <_or1k_exception_handler>
    1484:	b4 80 00 20 	l.mfspr r4,r0,0x20
	...
    1500:	c0 00 0c 21 	l.mtspr r0,r1,0x421
    1504:	c0 00 1c 22 	l.mtspr r0,r3,0x422
    1508:	c0 00 24 23 	l.mtspr r0,r4,0x423
    150c:	18 80 00 01 	l.movhi r4,0x1
    1510:	a8 84 54 70 	l.ori r4,r4,0x5470
    1514:	84 84 00 00 	l.lwz r4,0(r4)
    1518:	b4 60 00 80 	l.mfspr r3,r0,0x80
    151c:	b8 63 00 02 	l.slli r3,r3,0x2
    1520:	e0 84 18 00 	l.add r4,r4,r3
    1524:	84 64 00 00 	l.lwz r3,0(r4)
    1528:	9c 63 00 01 	l.addi r3,r3,1
    152c:	d4 04 18 00 	l.sw 0(r4),r3
    1530:	bc 03 00 01 	l.sfeqi r3,1
    1534:	0c 00 00 0a 	l.bnf 155c <_or1k_reset+0x145c>
    1538:	15 00 00 00 	l.nop 0x0
    153c:	18 20 00 01 	l.movhi r1,0x1
    1540:	a8 21 54 74 	l.ori r1,r1,0x5474
    1544:	84 21 00 00 	l.lwz r1,0(r1)
    1548:	b4 60 00 80 	l.mfspr r3,r0,0x80
    154c:	b8 63 00 02 	l.slli r3,r3,0x2
    1550:	e0 21 18 00 	l.add r1,r1,r3
    1554:	00 00 00 03 	l.j 1560 <_or1k_reset+0x1460>
    1558:	84 21 00 00 	l.lwz r1,0(r1)
    155c:	9c 21 ff 80 	l.addi r1,r1,-128
    1560:	9c 21 ff 78 	l.addi r1,r1,-136
    1564:	b4 60 04 21 	l.mfspr r3,r0,0x421
    1568:	d4 01 18 04 	l.sw 4(r1),r3
    156c:	b4 60 04 22 	l.mfspr r3,r0,0x422
    1570:	d4 01 18 0c 	l.sw 12(r1),r3
    1574:	b4 80 04 23 	l.mfspr r4,r0,0x423
    1578:	d4 01 20 10 	l.sw 16(r1),r4
    157c:	b4 60 00 10 	l.mfspr r3,r0,0x10
    1580:	00 00 32 12 	l.j ddc8 <_or1k_exception_handler>
    1584:	b4 80 00 20 	l.mfspr r4,r0,0x20
	...
    1600:	c0 00 0c 21 	l.mtspr r0,r1,0x421
    1604:	c0 00 1c 22 	l.mtspr r0,r3,0x422
    1608:	c0 00 24 23 	l.mtspr r0,r4,0x423
    160c:	18 80 00 01 	l.movhi r4,0x1
    1610:	a8 84 54 70 	l.ori r4,r4,0x5470
    1614:	84 84 00 00 	l.lwz r4,0(r4)
    1618:	b4 60 00 80 	l.mfspr r3,r0,0x80
    161c:	b8 63 00 02 	l.slli r3,r3,0x2
    1620:	e0 84 18 00 	l.add r4,r4,r3
    1624:	84 64 00 00 	l.lwz r3,0(r4)
    1628:	9c 63 00 01 	l.addi r3,r3,1
    162c:	d4 04 18 00 	l.sw 0(r4),r3
    1630:	bc 03 00 01 	l.sfeqi r3,1
    1634:	0c 00 00 0a 	l.bnf 165c <_or1k_reset+0x155c>
    1638:	15 00 00 00 	l.nop 0x0
    163c:	18 20 00 01 	l.movhi r1,0x1
    1640:	a8 21 54 74 	l.ori r1,r1,0x5474
    1644:	84 21 00 00 	l.lwz r1,0(r1)
    1648:	b4 60 00 80 	l.mfspr r3,r0,0x80
    164c:	b8 63 00 02 	l.slli r3,r3,0x2
    1650:	e0 21 18 00 	l.add r1,r1,r3
    1654:	00 00 00 03 	l.j 1660 <_or1k_reset+0x1560>
    1658:	84 21 00 00 	l.lwz r1,0(r1)
    165c:	9c 21 ff 80 	l.addi r1,r1,-128
    1660:	9c 21 ff 78 	l.addi r1,r1,-136
    1664:	b4 60 04 21 	l.mfspr r3,r0,0x421
    1668:	d4 01 18 04 	l.sw 4(r1),r3
    166c:	b4 60 04 22 	l.mfspr r3,r0,0x422
    1670:	d4 01 18 0c 	l.sw 12(r1),r3
    1674:	b4 80 04 23 	l.mfspr r4,r0,0x423
    1678:	d4 01 20 10 	l.sw 16(r1),r4
    167c:	b4 60 00 10 	l.mfspr r3,r0,0x10
    1680:	00 00 31 d2 	l.j ddc8 <_or1k_exception_handler>
    1684:	b4 80 00 20 	l.mfspr r4,r0,0x20
	...
    1700:	c0 00 0c 21 	l.mtspr r0,r1,0x421
    1704:	c0 00 1c 22 	l.mtspr r0,r3,0x422
    1708:	c0 00 24 23 	l.mtspr r0,r4,0x423
    170c:	18 80 00 01 	l.movhi r4,0x1
    1710:	a8 84 54 70 	l.ori r4,r4,0x5470
    1714:	84 84 00 00 	l.lwz r4,0(r4)
    1718:	b4 60 00 80 	l.mfspr r3,r0,0x80
    171c:	b8 63 00 02 	l.slli r3,r3,0x2
    1720:	e0 84 18 00 	l.add r4,r4,r3
    1724:	84 64 00 00 	l.lwz r3,0(r4)
    1728:	9c 63 00 01 	l.addi r3,r3,1
    172c:	d4 04 18 00 	l.sw 0(r4),r3
    1730:	bc 03 00 01 	l.sfeqi r3,1
    1734:	0c 00 00 0a 	l.bnf 175c <_or1k_reset+0x165c>
    1738:	15 00 00 00 	l.nop 0x0
    173c:	18 20 00 01 	l.movhi r1,0x1
    1740:	a8 21 54 74 	l.ori r1,r1,0x5474
    1744:	84 21 00 00 	l.lwz r1,0(r1)
    1748:	b4 60 00 80 	l.mfspr r3,r0,0x80
    174c:	b8 63 00 02 	l.slli r3,r3,0x2
    1750:	e0 21 18 00 	l.add r1,r1,r3
    1754:	00 00 00 03 	l.j 1760 <_or1k_reset+0x1660>
    1758:	84 21 00 00 	l.lwz r1,0(r1)
    175c:	9c 21 ff 80 	l.addi r1,r1,-128
    1760:	9c 21 ff 78 	l.addi r1,r1,-136
    1764:	b4 60 04 21 	l.mfspr r3,r0,0x421
    1768:	d4 01 18 04 	l.sw 4(r1),r3
    176c:	b4 60 04 22 	l.mfspr r3,r0,0x422
    1770:	d4 01 18 0c 	l.sw 12(r1),r3
    1774:	b4 80 04 23 	l.mfspr r4,r0,0x423
    1778:	d4 01 20 10 	l.sw 16(r1),r4
    177c:	b4 60 00 10 	l.mfspr r3,r0,0x10
    1780:	00 00 31 92 	l.j ddc8 <_or1k_exception_handler>
    1784:	b4 80 00 20 	l.mfspr r4,r0,0x20
	...
    1800:	c0 00 0c 21 	l.mtspr r0,r1,0x421
    1804:	c0 00 1c 22 	l.mtspr r0,r3,0x422
    1808:	c0 00 24 23 	l.mtspr r0,r4,0x423
    180c:	18 80 00 01 	l.movhi r4,0x1
    1810:	a8 84 54 70 	l.ori r4,r4,0x5470
    1814:	84 84 00 00 	l.lwz r4,0(r4)
    1818:	b4 60 00 80 	l.mfspr r3,r0,0x80
    181c:	b8 63 00 02 	l.slli r3,r3,0x2
    1820:	e0 84 18 00 	l.add r4,r4,r3
    1824:	84 64 00 00 	l.lwz r3,0(r4)
    1828:	9c 63 00 01 	l.addi r3,r3,1
    182c:	d4 04 18 00 	l.sw 0(r4),r3
    1830:	bc 03 00 01 	l.sfeqi r3,1
    1834:	0c 00 00 0a 	l.bnf 185c <_or1k_reset+0x175c>
    1838:	15 00 00 00 	l.nop 0x0
    183c:	18 20 00 01 	l.movhi r1,0x1
    1840:	a8 21 54 74 	l.ori r1,r1,0x5474
    1844:	84 21 00 00 	l.lwz r1,0(r1)
    1848:	b4 60 00 80 	l.mfspr r3,r0,0x80
    184c:	b8 63 00 02 	l.slli r3,r3,0x2
    1850:	e0 21 18 00 	l.add r1,r1,r3
    1854:	00 00 00 03 	l.j 1860 <_or1k_reset+0x1760>
    1858:	84 21 00 00 	l.lwz r1,0(r1)
    185c:	9c 21 ff 80 	l.addi r1,r1,-128
    1860:	9c 21 ff 78 	l.addi r1,r1,-136
    1864:	b4 60 04 21 	l.mfspr r3,r0,0x421
    1868:	d4 01 18 04 	l.sw 4(r1),r3
    186c:	b4 60 04 22 	l.mfspr r3,r0,0x422
    1870:	d4 01 18 0c 	l.sw 12(r1),r3
    1874:	b4 80 04 23 	l.mfspr r4,r0,0x423
    1878:	d4 01 20 10 	l.sw 16(r1),r4
    187c:	b4 60 00 10 	l.mfspr r3,r0,0x10
    1880:	00 00 31 52 	l.j ddc8 <_or1k_exception_handler>
    1884:	b4 80 00 20 	l.mfspr r4,r0,0x20
	...
    1900:	c0 00 0c 21 	l.mtspr r0,r1,0x421
    1904:	c0 00 1c 22 	l.mtspr r0,r3,0x422
    1908:	c0 00 24 23 	l.mtspr r0,r4,0x423
    190c:	18 80 00 01 	l.movhi r4,0x1
    1910:	a8 84 54 70 	l.ori r4,r4,0x5470
    1914:	84 84 00 00 	l.lwz r4,0(r4)
    1918:	b4 60 00 80 	l.mfspr r3,r0,0x80
    191c:	b8 63 00 02 	l.slli r3,r3,0x2
    1920:	e0 84 18 00 	l.add r4,r4,r3
    1924:	84 64 00 00 	l.lwz r3,0(r4)
    1928:	9c 63 00 01 	l.addi r3,r3,1
    192c:	d4 04 18 00 	l.sw 0(r4),r3
    1930:	bc 03 00 01 	l.sfeqi r3,1
    1934:	0c 00 00 0a 	l.bnf 195c <_or1k_reset+0x185c>
    1938:	15 00 00 00 	l.nop 0x0
    193c:	18 20 00 01 	l.movhi r1,0x1
    1940:	a8 21 54 74 	l.ori r1,r1,0x5474
    1944:	84 21 00 00 	l.lwz r1,0(r1)
    1948:	b4 60 00 80 	l.mfspr r3,r0,0x80
    194c:	b8 63 00 02 	l.slli r3,r3,0x2
    1950:	e0 21 18 00 	l.add r1,r1,r3
    1954:	00 00 00 03 	l.j 1960 <_or1k_reset+0x1860>
    1958:	84 21 00 00 	l.lwz r1,0(r1)
    195c:	9c 21 ff 80 	l.addi r1,r1,-128
    1960:	9c 21 ff 78 	l.addi r1,r1,-136
    1964:	b4 60 04 21 	l.mfspr r3,r0,0x421
    1968:	d4 01 18 04 	l.sw 4(r1),r3
    196c:	b4 60 04 22 	l.mfspr r3,r0,0x422
    1970:	d4 01 18 0c 	l.sw 12(r1),r3
    1974:	b4 80 04 23 	l.mfspr r4,r0,0x423
    1978:	d4 01 20 10 	l.sw 16(r1),r4
    197c:	b4 60 00 10 	l.mfspr r3,r0,0x10
    1980:	00 00 31 12 	l.j ddc8 <_or1k_exception_handler>
    1984:	b4 80 00 20 	l.mfspr r4,r0,0x20
	...
    1a00:	c0 00 0c 21 	l.mtspr r0,r1,0x421
    1a04:	c0 00 1c 22 	l.mtspr r0,r3,0x422
    1a08:	c0 00 24 23 	l.mtspr r0,r4,0x423
    1a0c:	18 80 00 01 	l.movhi r4,0x1
    1a10:	a8 84 54 70 	l.ori r4,r4,0x5470
    1a14:	84 84 00 00 	l.lwz r4,0(r4)
    1a18:	b4 60 00 80 	l.mfspr r3,r0,0x80
    1a1c:	b8 63 00 02 	l.slli r3,r3,0x2
    1a20:	e0 84 18 00 	l.add r4,r4,r3
    1a24:	84 64 00 00 	l.lwz r3,0(r4)
    1a28:	9c 63 00 01 	l.addi r3,r3,1
    1a2c:	d4 04 18 00 	l.sw 0(r4),r3
    1a30:	bc 03 00 01 	l.sfeqi r3,1
    1a34:	0c 00 00 0a 	l.bnf 1a5c <_or1k_reset+0x195c>
    1a38:	15 00 00 00 	l.nop 0x0
    1a3c:	18 20 00 01 	l.movhi r1,0x1
    1a40:	a8 21 54 74 	l.ori r1,r1,0x5474
    1a44:	84 21 00 00 	l.lwz r1,0(r1)
    1a48:	b4 60 00 80 	l.mfspr r3,r0,0x80
    1a4c:	b8 63 00 02 	l.slli r3,r3,0x2
    1a50:	e0 21 18 00 	l.add r1,r1,r3
    1a54:	00 00 00 03 	l.j 1a60 <_or1k_reset+0x1960>
    1a58:	84 21 00 00 	l.lwz r1,0(r1)
    1a5c:	9c 21 ff 80 	l.addi r1,r1,-128
    1a60:	9c 21 ff 78 	l.addi r1,r1,-136
    1a64:	b4 60 04 21 	l.mfspr r3,r0,0x421
    1a68:	d4 01 18 04 	l.sw 4(r1),r3
    1a6c:	b4 60 04 22 	l.mfspr r3,r0,0x422
    1a70:	d4 01 18 0c 	l.sw 12(r1),r3
    1a74:	b4 80 04 23 	l.mfspr r4,r0,0x423
    1a78:	d4 01 20 10 	l.sw 16(r1),r4
    1a7c:	b4 60 00 10 	l.mfspr r3,r0,0x10
    1a80:	00 00 30 d2 	l.j ddc8 <_or1k_exception_handler>
    1a84:	b4 80 00 20 	l.mfspr r4,r0,0x20
	...
    1b00:	c0 00 0c 21 	l.mtspr r0,r1,0x421
    1b04:	c0 00 1c 22 	l.mtspr r0,r3,0x422
    1b08:	c0 00 24 23 	l.mtspr r0,r4,0x423
    1b0c:	18 80 00 01 	l.movhi r4,0x1
    1b10:	a8 84 54 70 	l.ori r4,r4,0x5470
    1b14:	84 84 00 00 	l.lwz r4,0(r4)
    1b18:	b4 60 00 80 	l.mfspr r3,r0,0x80
    1b1c:	b8 63 00 02 	l.slli r3,r3,0x2
    1b20:	e0 84 18 00 	l.add r4,r4,r3
    1b24:	84 64 00 00 	l.lwz r3,0(r4)
    1b28:	9c 63 00 01 	l.addi r3,r3,1
    1b2c:	d4 04 18 00 	l.sw 0(r4),r3
    1b30:	bc 03 00 01 	l.sfeqi r3,1
    1b34:	0c 00 00 0a 	l.bnf 1b5c <_or1k_reset+0x1a5c>
    1b38:	15 00 00 00 	l.nop 0x0
    1b3c:	18 20 00 01 	l.movhi r1,0x1
    1b40:	a8 21 54 74 	l.ori r1,r1,0x5474
    1b44:	84 21 00 00 	l.lwz r1,0(r1)
    1b48:	b4 60 00 80 	l.mfspr r3,r0,0x80
    1b4c:	b8 63 00 02 	l.slli r3,r3,0x2
    1b50:	e0 21 18 00 	l.add r1,r1,r3
    1b54:	00 00 00 03 	l.j 1b60 <_or1k_reset+0x1a60>
    1b58:	84 21 00 00 	l.lwz r1,0(r1)
    1b5c:	9c 21 ff 80 	l.addi r1,r1,-128
    1b60:	9c 21 ff 78 	l.addi r1,r1,-136
    1b64:	b4 60 04 21 	l.mfspr r3,r0,0x421
    1b68:	d4 01 18 04 	l.sw 4(r1),r3
    1b6c:	b4 60 04 22 	l.mfspr r3,r0,0x422
    1b70:	d4 01 18 0c 	l.sw 12(r1),r3
    1b74:	b4 80 04 23 	l.mfspr r4,r0,0x423
    1b78:	d4 01 20 10 	l.sw 16(r1),r4
    1b7c:	b4 60 00 10 	l.mfspr r3,r0,0x10
    1b80:	00 00 30 92 	l.j ddc8 <_or1k_exception_handler>
    1b84:	b4 80 00 20 	l.mfspr r4,r0,0x20
	...
    1c00:	c0 00 0c 21 	l.mtspr r0,r1,0x421
    1c04:	c0 00 1c 22 	l.mtspr r0,r3,0x422
    1c08:	c0 00 24 23 	l.mtspr r0,r4,0x423
    1c0c:	18 80 00 01 	l.movhi r4,0x1
    1c10:	a8 84 54 70 	l.ori r4,r4,0x5470
    1c14:	84 84 00 00 	l.lwz r4,0(r4)
    1c18:	b4 60 00 80 	l.mfspr r3,r0,0x80
    1c1c:	b8 63 00 02 	l.slli r3,r3,0x2
    1c20:	e0 84 18 00 	l.add r4,r4,r3
    1c24:	84 64 00 00 	l.lwz r3,0(r4)
    1c28:	9c 63 00 01 	l.addi r3,r3,1
    1c2c:	d4 04 18 00 	l.sw 0(r4),r3
    1c30:	bc 03 00 01 	l.sfeqi r3,1
    1c34:	0c 00 00 0a 	l.bnf 1c5c <_or1k_reset+0x1b5c>
    1c38:	15 00 00 00 	l.nop 0x0
    1c3c:	18 20 00 01 	l.movhi r1,0x1
    1c40:	a8 21 54 74 	l.ori r1,r1,0x5474
    1c44:	84 21 00 00 	l.lwz r1,0(r1)
    1c48:	b4 60 00 80 	l.mfspr r3,r0,0x80
    1c4c:	b8 63 00 02 	l.slli r3,r3,0x2
    1c50:	e0 21 18 00 	l.add r1,r1,r3
    1c54:	00 00 00 03 	l.j 1c60 <_or1k_reset+0x1b60>
    1c58:	84 21 00 00 	l.lwz r1,0(r1)
    1c5c:	9c 21 ff 80 	l.addi r1,r1,-128
    1c60:	9c 21 ff 78 	l.addi r1,r1,-136
    1c64:	b4 60 04 21 	l.mfspr r3,r0,0x421
    1c68:	d4 01 18 04 	l.sw 4(r1),r3
    1c6c:	b4 60 04 22 	l.mfspr r3,r0,0x422
    1c70:	d4 01 18 0c 	l.sw 12(r1),r3
    1c74:	b4 80 04 23 	l.mfspr r4,r0,0x423
    1c78:	d4 01 20 10 	l.sw 16(r1),r4
    1c7c:	b4 60 00 10 	l.mfspr r3,r0,0x10
    1c80:	00 00 30 52 	l.j ddc8 <_or1k_exception_handler>
    1c84:	b4 80 00 20 	l.mfspr r4,r0,0x20
	...
    1d00:	c0 00 0c 21 	l.mtspr r0,r1,0x421
    1d04:	c0 00 1c 22 	l.mtspr r0,r3,0x422
    1d08:	c0 00 24 23 	l.mtspr r0,r4,0x423
    1d0c:	18 80 00 01 	l.movhi r4,0x1
    1d10:	a8 84 54 70 	l.ori r4,r4,0x5470
    1d14:	84 84 00 00 	l.lwz r4,0(r4)
    1d18:	b4 60 00 80 	l.mfspr r3,r0,0x80
    1d1c:	b8 63 00 02 	l.slli r3,r3,0x2
    1d20:	e0 84 18 00 	l.add r4,r4,r3
    1d24:	84 64 00 00 	l.lwz r3,0(r4)
    1d28:	9c 63 00 01 	l.addi r3,r3,1
    1d2c:	d4 04 18 00 	l.sw 0(r4),r3
    1d30:	bc 03 00 01 	l.sfeqi r3,1
    1d34:	0c 00 00 0a 	l.bnf 1d5c <_or1k_reset+0x1c5c>
    1d38:	15 00 00 00 	l.nop 0x0
    1d3c:	18 20 00 01 	l.movhi r1,0x1
    1d40:	a8 21 54 74 	l.ori r1,r1,0x5474
    1d44:	84 21 00 00 	l.lwz r1,0(r1)
    1d48:	b4 60 00 80 	l.mfspr r3,r0,0x80
    1d4c:	b8 63 00 02 	l.slli r3,r3,0x2
    1d50:	e0 21 18 00 	l.add r1,r1,r3
    1d54:	00 00 00 03 	l.j 1d60 <_or1k_reset+0x1c60>
    1d58:	84 21 00 00 	l.lwz r1,0(r1)
    1d5c:	9c 21 ff 80 	l.addi r1,r1,-128
    1d60:	9c 21 ff 78 	l.addi r1,r1,-136
    1d64:	b4 60 04 21 	l.mfspr r3,r0,0x421
    1d68:	d4 01 18 04 	l.sw 4(r1),r3
    1d6c:	b4 60 04 22 	l.mfspr r3,r0,0x422
    1d70:	d4 01 18 0c 	l.sw 12(r1),r3
    1d74:	b4 80 04 23 	l.mfspr r4,r0,0x423
    1d78:	d4 01 20 10 	l.sw 16(r1),r4
    1d7c:	b4 60 00 10 	l.mfspr r3,r0,0x10
    1d80:	00 00 30 12 	l.j ddc8 <_or1k_exception_handler>
    1d84:	b4 80 00 20 	l.mfspr r4,r0,0x20
	...
    1e00:	c0 00 0c 21 	l.mtspr r0,r1,0x421
    1e04:	c0 00 1c 22 	l.mtspr r0,r3,0x422
    1e08:	c0 00 24 23 	l.mtspr r0,r4,0x423
    1e0c:	18 80 00 01 	l.movhi r4,0x1
    1e10:	a8 84 54 70 	l.ori r4,r4,0x5470
    1e14:	84 84 00 00 	l.lwz r4,0(r4)
    1e18:	b4 60 00 80 	l.mfspr r3,r0,0x80
    1e1c:	b8 63 00 02 	l.slli r3,r3,0x2
    1e20:	e0 84 18 00 	l.add r4,r4,r3
    1e24:	84 64 00 00 	l.lwz r3,0(r4)
    1e28:	9c 63 00 01 	l.addi r3,r3,1
    1e2c:	d4 04 18 00 	l.sw 0(r4),r3
    1e30:	bc 03 00 01 	l.sfeqi r3,1
    1e34:	0c 00 00 0a 	l.bnf 1e5c <_or1k_reset+0x1d5c>
    1e38:	15 00 00 00 	l.nop 0x0
    1e3c:	18 20 00 01 	l.movhi r1,0x1
    1e40:	a8 21 54 74 	l.ori r1,r1,0x5474
    1e44:	84 21 00 00 	l.lwz r1,0(r1)
    1e48:	b4 60 00 80 	l.mfspr r3,r0,0x80
    1e4c:	b8 63 00 02 	l.slli r3,r3,0x2
    1e50:	e0 21 18 00 	l.add r1,r1,r3
    1e54:	00 00 00 03 	l.j 1e60 <_or1k_reset+0x1d60>
    1e58:	84 21 00 00 	l.lwz r1,0(r1)
    1e5c:	9c 21 ff 80 	l.addi r1,r1,-128
    1e60:	9c 21 ff 78 	l.addi r1,r1,-136
    1e64:	b4 60 04 21 	l.mfspr r3,r0,0x421
    1e68:	d4 01 18 04 	l.sw 4(r1),r3
    1e6c:	b4 60 04 22 	l.mfspr r3,r0,0x422
    1e70:	d4 01 18 0c 	l.sw 12(r1),r3
    1e74:	b4 80 04 23 	l.mfspr r4,r0,0x423
    1e78:	d4 01 20 10 	l.sw 16(r1),r4
    1e7c:	b4 60 00 10 	l.mfspr r3,r0,0x10
    1e80:	00 00 2f d2 	l.j ddc8 <_or1k_exception_handler>
    1e84:	b4 80 00 20 	l.mfspr r4,r0,0x20
	...
    1f00:	c0 00 0c 21 	l.mtspr r0,r1,0x421
    1f04:	c0 00 1c 22 	l.mtspr r0,r3,0x422
    1f08:	c0 00 24 23 	l.mtspr r0,r4,0x423
    1f0c:	18 80 00 01 	l.movhi r4,0x1
    1f10:	a8 84 54 70 	l.ori r4,r4,0x5470
    1f14:	84 84 00 00 	l.lwz r4,0(r4)
    1f18:	b4 60 00 80 	l.mfspr r3,r0,0x80
    1f1c:	b8 63 00 02 	l.slli r3,r3,0x2
    1f20:	e0 84 18 00 	l.add r4,r4,r3
    1f24:	84 64 00 00 	l.lwz r3,0(r4)
    1f28:	9c 63 00 01 	l.addi r3,r3,1
    1f2c:	d4 04 18 00 	l.sw 0(r4),r3
    1f30:	bc 03 00 01 	l.sfeqi r3,1
    1f34:	0c 00 00 0a 	l.bnf 1f5c <_or1k_reset+0x1e5c>
    1f38:	15 00 00 00 	l.nop 0x0
    1f3c:	18 20 00 01 	l.movhi r1,0x1
    1f40:	a8 21 54 74 	l.ori r1,r1,0x5474
    1f44:	84 21 00 00 	l.lwz r1,0(r1)
    1f48:	b4 60 00 80 	l.mfspr r3,r0,0x80
    1f4c:	b8 63 00 02 	l.slli r3,r3,0x2
    1f50:	e0 21 18 00 	l.add r1,r1,r3
    1f54:	00 00 00 03 	l.j 1f60 <_or1k_reset+0x1e60>
    1f58:	84 21 00 00 	l.lwz r1,0(r1)
    1f5c:	9c 21 ff 80 	l.addi r1,r1,-128
    1f60:	9c 21 ff 78 	l.addi r1,r1,-136
    1f64:	b4 60 04 21 	l.mfspr r3,r0,0x421
    1f68:	d4 01 18 04 	l.sw 4(r1),r3
    1f6c:	b4 60 04 22 	l.mfspr r3,r0,0x422
    1f70:	d4 01 18 0c 	l.sw 12(r1),r3
    1f74:	b4 80 04 23 	l.mfspr r4,r0,0x423
    1f78:	d4 01 20 10 	l.sw 16(r1),r4
    1f7c:	b4 60 00 10 	l.mfspr r3,r0,0x10
    1f80:	00 00 2f 92 	l.j ddc8 <_or1k_exception_handler>
    1f84:	b4 80 00 20 	l.mfspr r4,r0,0x20
	...
    1ffc:	15 00 00 00 	l.nop 0x0

Desensamblado de la sección .init:

00002000 <_init-0x4>:
    2000:	15 00 00 00 	l.nop 0x0

00002004 <_init>:
    2004:	9c 21 ff fc 	l.addi r1,r1,-4
    2008:	d4 01 48 00 	l.sw 0(r1),r9
    200c:	04 00 00 e0 	l.jal 238c <frame_dummy>
    2010:	15 00 00 00 	l.nop 0x0
    2014:	04 00 40 ad 	l.jal 122c8 <__do_global_ctors_aux>
    2018:	15 00 00 00 	l.nop 0x0
    201c:	85 21 00 00 	l.lwz r9,0(r1)
    2020:	44 00 48 00 	l.jr r9
    2024:	9c 21 00 04 	l.addi r1,r1,4

Desensamblado de la sección .text:

00002028 <_or1k_start-0x8>:
    2028:	44 00 48 00 	l.jr r9
    202c:	15 00 00 00 	l.nop 0x0

00002030 <_or1k_start>:
    2030:	04 00 2e fe 	l.jal dc28 <_or1k_cache_init>
    2034:	15 00 00 00 	l.nop 0x0
    2038:	b4 20 00 80 	l.mfspr r1,r0,0x80
    203c:	e4 01 00 00 	l.sfeq r1,r0
    2040:	10 00 00 10 	l.bf 2080 <_or1k_start+0x50>
    2044:	15 00 00 00 	l.nop 0x0
    2048:	84 20 00 04 	l.lwz r1,4(r0)
    204c:	e4 01 00 00 	l.sfeq r1,r0
    2050:	13 ff ff fe 	l.bf 2048 <_or1k_start+0x18>
    2054:	15 00 00 00 	l.nop 0x0
    2058:	18 40 00 01 	l.movhi r2,0x1
    205c:	a8 42 54 84 	l.ori r2,r2,0x5484
    2060:	84 42 00 00 	l.lwz r2,0(r2)
    2064:	b4 20 00 80 	l.mfspr r1,r0,0x80
    2068:	b8 21 00 02 	l.slli r1,r1,0x2
    206c:	e0 42 08 00 	l.add r2,r2,r1
    2070:	84 22 00 00 	l.lwz r1,0(r2)
    2074:	e0 41 08 04 	l.or r2,r1,r1
    2078:	00 00 00 42 	l.j 2180 <_or1k_start+0x150>
    207c:	15 00 00 00 	l.nop 0x0
    2080:	04 00 33 79 	l.jal ee64 <_or1k_board_init_early>
    2084:	15 00 00 00 	l.nop 0x0
    2088:	18 60 00 01 	l.movhi r3,0x1
    208c:	a8 63 53 e0 	l.ori r3,r3,0x53e0
    2090:	18 80 00 01 	l.movhi r4,0x1
    2094:	a8 84 54 90 	l.ori r4,r4,0x5490
    2098:	d4 03 00 00 	l.sw 0(r3),r0
    209c:	e4 83 20 00 	l.sfltu r3,r4
    20a0:	13 ff ff fe 	l.bf 2098 <_or1k_start+0x68>
    20a4:	9c 63 00 04 	l.addi r3,r3,4
    20a8:	18 20 00 00 	l.movhi r1,0x0
    20ac:	a8 21 ee 40 	l.ori r1,r1,0xee40
    20b0:	84 21 00 00 	l.lwz r1,0(r1)
    20b4:	18 40 00 00 	l.movhi r2,0x0
    20b8:	a8 42 ee 44 	l.ori r2,r2,0xee44
    20bc:	84 42 00 00 	l.lwz r2,0(r2)
    20c0:	e0 21 10 00 	l.add r1,r1,r2
    20c4:	18 60 00 01 	l.movhi r3,0x1
    20c8:	a8 63 54 78 	l.ori r3,r3,0x5478
    20cc:	d4 03 08 00 	l.sw 0(r3),r1
    20d0:	18 60 00 01 	l.movhi r3,0x1
    20d4:	a8 63 4b 18 	l.ori r3,r3,0x4b18
    20d8:	84 63 00 00 	l.lwz r3,0(r3)
    20dc:	b4 80 00 81 	l.mfspr r4,r0,0x81
    20e0:	e0 64 1b 06 	l.mul r3,r4,r3
    20e4:	e0 81 18 02 	l.sub r4,r1,r3
    20e8:	18 a0 00 01 	l.movhi r5,0x1
    20ec:	a8 a5 54 80 	l.ori r5,r5,0x5480
    20f0:	d4 05 20 00 	l.sw 0(r5),r4
    20f4:	e0 20 20 04 	l.or r1,r0,r4
    20f8:	e0 41 08 04 	l.or r2,r1,r1
    20fc:	18 60 00 01 	l.movhi r3,0x1
    2100:	a8 63 54 7c 	l.ori r3,r3,0x547c
    2104:	d4 03 08 00 	l.sw 0(r3),r1
    2108:	18 60 00 01 	l.movhi r3,0x1
    210c:	a8 63 4b 14 	l.ori r3,r3,0x4b14
    2110:	84 63 00 00 	l.lwz r3,0(r3)
    2114:	b4 80 00 81 	l.mfspr r4,r0,0x81
    2118:	e0 64 1b 06 	l.mul r3,r4,r3
    211c:	e0 81 18 02 	l.sub r4,r1,r3
    2120:	18 a0 00 01 	l.movhi r5,0x1
    2124:	a8 a5 54 88 	l.ori r5,r5,0x5488
    2128:	d4 05 20 00 	l.sw 0(r5),r4
    212c:	04 00 31 43 	l.jal e638 <_or1k_init>
    2130:	15 00 00 00 	l.nop 0x0
    2134:	04 00 30 4b 	l.jal e260 <_or1k_libc_impure_init>
    2138:	15 00 00 00 	l.nop 0x0
    213c:	07 ff ff b2 	l.jal 2004 <_init>
    2140:	15 00 00 00 	l.nop 0x0
    2144:	18 60 00 01 	l.movhi r3,0x1
    2148:	04 00 02 09 	l.jal 296c <atexit>
    214c:	a8 63 23 38 	l.ori r3,r3,0x2338
    2150:	18 80 00 00 	l.movhi r4,0x0
    2154:	a8 84 ee 4c 	l.ori r4,r4,0xee4c
    2158:	84 84 00 00 	l.lwz r4,0(r4)
    215c:	e4 24 00 00 	l.sfne r4,r0
    2160:	0c 00 00 04 	l.bnf 2170 <_or1k_start+0x140>
    2164:	e0 60 00 04 	l.or r3,r0,r0
    2168:	04 00 2e 43 	l.jal da74 <_or1k_uart_init>
    216c:	15 00 00 00 	l.nop 0x0
    2170:	04 00 33 57 	l.jal eecc <_or1k_board_init>
    2174:	15 00 00 00 	l.nop 0x0
    2178:	a8 60 00 01 	l.ori r3,r0,0x1
    217c:	d4 00 18 04 	l.sw 4(r0),r3
    2180:	e0 60 00 04 	l.or r3,r0,r0
    2184:	e0 80 00 04 	l.or r4,r0,r0
    2188:	04 00 00 ee 	l.jal 2540 <main>
    218c:	e0 a0 00 04 	l.or r5,r0,r0

00002190 <.incrementexit>:
    2190:	6c 60 00 08 	l.lwa r3,8(r0)
    2194:	9c 63 00 01 	l.addi r3,r3,1
    2198:	cc 00 18 08 	l.swa 8(r0),r3
    219c:	0f ff ff fd 	l.bnf 2190 <.incrementexit>
    21a0:	15 00 00 00 	l.nop 0x0
    21a4:	b4 80 00 81 	l.mfspr r4,r0,0x81
    21a8:	e4 03 20 00 	l.sfeq r3,r4
    21ac:	10 00 00 04 	l.bf 21bc <.exitcorelast>
    21b0:	15 00 00 00 	l.nop 0x0
    21b4:	04 00 2d a2 	l.jal d83c <_exit>
    21b8:	9c 6b 00 00 	l.addi r3,r11,0

000021bc <.exitcorelast>:
    21bc:	04 00 01 f8 	l.jal 299c <exit>
    21c0:	9c 6b 00 00 	l.addi r3,r11,0
    21c4:	00 00 00 00 	l.j 21c4 <.exitcorelast+0x8>
    21c8:	15 00 00 00 	l.nop 0x0

000021cc <deregister_tm_clones>:
    21cc:	d7 e1 17 f8 	l.sw -8(r1),r2
    21d0:	18 60 00 01 	l.movhi r3,0x1
    21d4:	18 40 00 01 	l.movhi r2,0x1
    21d8:	a8 63 53 e3 	l.ori r3,r3,0x53e3
    21dc:	a8 42 53 e0 	l.ori r2,r2,0x53e0
    21e0:	d7 e1 4f fc 	l.sw -4(r1),r9
    21e4:	e0 63 10 02 	l.sub r3,r3,r2
    21e8:	d7 e1 0f f4 	l.sw -12(r1),r1
    21ec:	bc a3 00 06 	l.sfleui r3,6
    21f0:	10 00 00 09 	l.bf 2214 <deregister_tm_clones+0x48>
    21f4:	9c 21 ff f4 	l.addi r1,r1,-12
    21f8:	18 80 00 00 	l.movhi r4,0x0
    21fc:	a8 84 00 00 	l.ori r4,r4,0x0
    2200:	bc 04 00 00 	l.sfeqi r4,0
    2204:	10 00 00 04 	l.bf 2214 <deregister_tm_clones+0x48>
    2208:	15 00 00 00 	l.nop 0x0
    220c:	48 00 20 00 	l.jalr r4
    2210:	a8 62 00 00 	l.ori r3,r2,0x0
    2214:	9c 21 00 0c 	l.addi r1,r1,12
    2218:	85 21 ff fc 	l.lwz r9,-4(r1)
    221c:	84 21 ff f4 	l.lwz r1,-12(r1)
    2220:	44 00 48 00 	l.jr r9
    2224:	84 41 ff f8 	l.lwz r2,-8(r1)

00002228 <register_tm_clones>:
    2228:	d7 e1 17 f8 	l.sw -8(r1),r2
    222c:	18 60 00 01 	l.movhi r3,0x1
    2230:	18 40 00 01 	l.movhi r2,0x1
    2234:	a8 63 53 e0 	l.ori r3,r3,0x53e0
    2238:	a8 42 53 e0 	l.ori r2,r2,0x53e0
    223c:	d7 e1 4f fc 	l.sw -4(r1),r9
    2240:	e0 63 10 02 	l.sub r3,r3,r2
    2244:	d7 e1 0f f4 	l.sw -12(r1),r1
    2248:	b8 63 00 82 	l.srai r3,r3,0x2
    224c:	b8 83 00 5f 	l.srli r4,r3,0x1f
    2250:	e0 84 18 00 	l.add r4,r4,r3
    2254:	b8 84 00 81 	l.srai r4,r4,0x1
    2258:	bc 04 00 00 	l.sfeqi r4,0
    225c:	10 00 00 09 	l.bf 2280 <register_tm_clones+0x58>
    2260:	9c 21 ff f4 	l.addi r1,r1,-12
    2264:	18 a0 00 00 	l.movhi r5,0x0
    2268:	a8 a5 00 00 	l.ori r5,r5,0x0
    226c:	bc 05 00 00 	l.sfeqi r5,0
    2270:	10 00 00 04 	l.bf 2280 <register_tm_clones+0x58>
    2274:	15 00 00 00 	l.nop 0x0
    2278:	48 00 28 00 	l.jalr r5
    227c:	a8 62 00 00 	l.ori r3,r2,0x0
    2280:	9c 21 00 0c 	l.addi r1,r1,12
    2284:	85 21 ff fc 	l.lwz r9,-4(r1)
    2288:	84 21 ff f4 	l.lwz r1,-12(r1)
    228c:	44 00 48 00 	l.jr r9
    2290:	84 41 ff f8 	l.lwz r2,-8(r1)

00002294 <__do_global_dtors_aux>:
    2294:	d7 e1 a7 f8 	l.sw -8(r1),r20
    2298:	1a 80 00 01 	l.movhi r20,0x1
    229c:	d7 e1 17 ec 	l.sw -20(r1),r2
    22a0:	aa 94 53 e0 	l.ori r20,r20,0x53e0
    22a4:	d7 e1 4f fc 	l.sw -4(r1),r9
    22a8:	8c 54 00 00 	l.lbz r2,0(r20)
    22ac:	d7 e1 0f e8 	l.sw -24(r1),r1
    22b0:	d7 e1 77 f0 	l.sw -16(r1),r14
    22b4:	d7 e1 97 f4 	l.sw -12(r1),r18
    22b8:	bc 22 00 00 	l.sfnei r2,0
    22bc:	10 00 00 25 	l.bf 2350 <__do_global_dtors_aux+0xbc>
    22c0:	9c 21 ff e8 	l.addi r1,r1,-24
    22c4:	19 c0 00 01 	l.movhi r14,0x1
    22c8:	18 80 00 01 	l.movhi r4,0x1
    22cc:	a9 ce 4b 0c 	l.ori r14,r14,0x4b0c
    22d0:	a8 84 4b 08 	l.ori r4,r4,0x4b08
    22d4:	18 40 00 01 	l.movhi r2,0x1
    22d8:	e1 ce 20 02 	l.sub r14,r14,r4
    22dc:	a8 42 53 e4 	l.ori r2,r2,0x53e4
    22e0:	b9 ce 00 82 	l.srai r14,r14,0x2
    22e4:	84 62 00 00 	l.lwz r3,0(r2)
    22e8:	aa 44 00 00 	l.ori r18,r4,0x0
    22ec:	9d ce ff ff 	l.addi r14,r14,-1
    22f0:	e4 83 70 00 	l.sfltu r3,r14
    22f4:	0c 00 00 0c 	l.bnf 2324 <__do_global_dtors_aux+0x90>
    22f8:	9c 63 00 01 	l.addi r3,r3,1
    22fc:	b8 83 00 02 	l.slli r4,r3,0x2
    2300:	d4 02 18 00 	l.sw 0(r2),r3
    2304:	e0 72 20 00 	l.add r3,r18,r4
    2308:	84 63 00 00 	l.lwz r3,0(r3)
    230c:	48 00 18 00 	l.jalr r3
    2310:	15 00 00 00 	l.nop 0x0
    2314:	84 62 00 00 	l.lwz r3,0(r2)
    2318:	e4 83 70 00 	l.sfltu r3,r14
    231c:	13 ff ff f8 	l.bf 22fc <__do_global_dtors_aux+0x68>
    2320:	9c 63 00 01 	l.addi r3,r3,1
    2324:	07 ff ff aa 	l.jal 21cc <deregister_tm_clones>
    2328:	18 40 00 00 	l.movhi r2,0x0
    232c:	a8 42 00 00 	l.ori r2,r2,0x0
    2330:	bc 22 00 00 	l.sfnei r2,0
    2334:	0c 00 00 06 	l.bnf 234c <__do_global_dtors_aux+0xb8>
    2338:	9c 40 00 01 	l.addi r2,r0,1
    233c:	18 60 00 01 	l.movhi r3,0x1
    2340:	07 ff f7 30 	l.jal 0 <_or1k_reset-0x100>
    2344:	a8 63 4a 44 	l.ori r3,r3,0x4a44
    2348:	9c 40 00 01 	l.addi r2,r0,1
    234c:	d8 14 10 00 	l.sb 0(r20),r2
    2350:	9c 21 00 18 	l.addi r1,r1,24
    2354:	85 21 ff fc 	l.lwz r9,-4(r1)
    2358:	84 21 ff e8 	l.lwz r1,-24(r1)
    235c:	84 41 ff ec 	l.lwz r2,-20(r1)
    2360:	85 c1 ff f0 	l.lwz r14,-16(r1)
    2364:	86 41 ff f4 	l.lwz r18,-12(r1)
    2368:	44 00 48 00 	l.jr r9
    236c:	86 81 ff f8 	l.lwz r20,-8(r1)

00002370 <call___do_global_dtors_aux>:
    2370:	d7 e1 4f fc 	l.sw -4(r1),r9
    2374:	d7 e1 0f f8 	l.sw -8(r1),r1
    2378:	9c 21 ff f8 	l.addi r1,r1,-8
    237c:	9c 21 00 08 	l.addi r1,r1,8
    2380:	85 21 ff fc 	l.lwz r9,-4(r1)
    2384:	44 00 48 00 	l.jr r9
    2388:	84 21 ff f8 	l.lwz r1,-8(r1)

0000238c <frame_dummy>:
    238c:	18 60 00 00 	l.movhi r3,0x0
    2390:	d7 e1 4f fc 	l.sw -4(r1),r9
    2394:	a8 63 00 00 	l.ori r3,r3,0x0
    2398:	d7 e1 0f f8 	l.sw -8(r1),r1
    239c:	bc 03 00 00 	l.sfeqi r3,0
    23a0:	10 00 00 07 	l.bf 23bc <frame_dummy+0x30>
    23a4:	9c 21 ff f8 	l.addi r1,r1,-8
    23a8:	18 80 00 01 	l.movhi r4,0x1
    23ac:	18 60 00 01 	l.movhi r3,0x1
    23b0:	a8 84 53 e8 	l.ori r4,r4,0x53e8
    23b4:	07 ff f7 13 	l.jal 0 <_or1k_reset-0x100>
    23b8:	a8 63 4a 44 	l.ori r3,r3,0x4a44
    23bc:	18 60 00 01 	l.movhi r3,0x1
    23c0:	a8 63 4b 10 	l.ori r3,r3,0x4b10
    23c4:	84 83 00 00 	l.lwz r4,0(r3)
    23c8:	bc 04 00 00 	l.sfeqi r4,0
    23cc:	0c 00 00 08 	l.bnf 23ec <frame_dummy+0x60>
    23d0:	18 80 00 00 	l.movhi r4,0x0
    23d4:	07 ff ff 95 	l.jal 2228 <register_tm_clones>
    23d8:	15 00 00 00 	l.nop 0x0
    23dc:	9c 21 00 08 	l.addi r1,r1,8
    23e0:	85 21 ff fc 	l.lwz r9,-4(r1)
    23e4:	44 00 48 00 	l.jr r9
    23e8:	84 21 ff f8 	l.lwz r1,-8(r1)
    23ec:	a8 84 00 00 	l.ori r4,r4,0x0
    23f0:	bc 04 00 00 	l.sfeqi r4,0
    23f4:	13 ff ff f8 	l.bf 23d4 <frame_dummy+0x48>
    23f8:	15 00 00 00 	l.nop 0x0
    23fc:	48 00 20 00 	l.jalr r4
    2400:	15 00 00 00 	l.nop 0x0
    2404:	03 ff ff f4 	l.j 23d4 <frame_dummy+0x48>
    2408:	15 00 00 00 	l.nop 0x0

0000240c <call_frame_dummy>:
    240c:	d7 e1 4f fc 	l.sw -4(r1),r9
    2410:	d7 e1 0f f8 	l.sw -8(r1),r1
    2414:	9c 21 ff f8 	l.addi r1,r1,-8
    2418:	9c 21 00 08 	l.addi r1,r1,8
    241c:	85 21 ff fc 	l.lwz r9,-4(r1)
    2420:	44 00 48 00 	l.jr r9
    2424:	84 21 ff f8 	l.lwz r1,-8(r1)

00002428 <or1k_mfspr>:
    2428:	d7 e1 17 fc 	l.sw -4(r1),r2
    242c:	9c 41 00 00 	l.addi r2,r1,0
    2430:	9c 21 ff f4 	l.addi r1,r1,-12
    2434:	d7 e2 1f f4 	l.sw -12(r2),r3
    2438:	84 62 ff f4 	l.lwz r3,-12(r2)
    243c:	b4 63 00 00 	l.mfspr r3,r3,0x0
    2440:	d7 e2 1f f8 	l.sw -8(r2),r3
    2444:	84 62 ff f8 	l.lwz r3,-8(r2)
    2448:	a9 63 00 00 	l.ori r11,r3,0x0
    244c:	a8 22 00 00 	l.ori r1,r2,0x0
    2450:	84 41 ff fc 	l.lwz r2,-4(r1)
    2454:	44 00 48 00 	l.jr r9
    2458:	15 00 00 00 	l.nop 0x0

0000245c <optimsoc_get_tileid>:
    245c:	d7 e1 17 fc 	l.sw -4(r1),r2
    2460:	9c 41 00 00 	l.addi r2,r1,0
    2464:	9c 21 ff fc 	l.addi r1,r1,-4
    2468:	18 60 e0 00 	l.movhi r3,0xe000
    246c:	84 63 00 00 	l.lwz r3,0(r3)
    2470:	a9 63 00 00 	l.ori r11,r3,0x0
    2474:	a8 22 00 00 	l.ori r1,r2,0x0
    2478:	84 41 ff fc 	l.lwz r2,-4(r1)
    247c:	44 00 48 00 	l.jr r9
    2480:	15 00 00 00 	l.nop 0x0

00002484 <optimsoc_get_relcoreid>:
    2484:	d7 e1 17 f8 	l.sw -8(r1),r2
    2488:	9c 41 00 00 	l.addi r2,r1,0
    248c:	d7 e1 4f fc 	l.sw -4(r1),r9
    2490:	9c 21 ff f8 	l.addi r1,r1,-8
    2494:	9c 60 00 80 	l.addi r3,r0,128
    2498:	07 ff ff e4 	l.jal 2428 <or1k_mfspr>
    249c:	15 00 00 00 	l.nop 0x0
    24a0:	a8 6b 00 00 	l.ori r3,r11,0x0
    24a4:	a9 63 00 00 	l.ori r11,r3,0x0
    24a8:	a8 22 00 00 	l.ori r1,r2,0x0
    24ac:	84 41 ff f8 	l.lwz r2,-8(r1)
    24b0:	85 21 ff fc 	l.lwz r9,-4(r1)
    24b4:	44 00 48 00 	l.jr r9
    24b8:	15 00 00 00 	l.nop 0x0

000024bc <optimsoc_get_tilenumcores>:
    24bc:	d7 e1 17 f8 	l.sw -8(r1),r2
    24c0:	9c 41 00 00 	l.addi r2,r1,0
    24c4:	d7 e1 4f fc 	l.sw -4(r1),r9
    24c8:	9c 21 ff f8 	l.addi r1,r1,-8
    24cc:	9c 60 00 81 	l.addi r3,r0,129
    24d0:	07 ff ff d6 	l.jal 2428 <or1k_mfspr>
    24d4:	15 00 00 00 	l.nop 0x0
    24d8:	a8 6b 00 00 	l.ori r3,r11,0x0
    24dc:	a9 63 00 00 	l.ori r11,r3,0x0
    24e0:	a8 22 00 00 	l.ori r1,r2,0x0
    24e4:	84 41 ff f8 	l.lwz r2,-8(r1)
    24e8:	85 21 ff fc 	l.lwz r9,-4(r1)
    24ec:	44 00 48 00 	l.jr r9
    24f0:	15 00 00 00 	l.nop 0x0

000024f4 <optimsoc_get_abscoreid>:
    24f4:	d7 e1 17 f8 	l.sw -8(r1),r2
    24f8:	9c 41 00 00 	l.addi r2,r1,0
    24fc:	d7 e1 4f fc 	l.sw -4(r1),r9
    2500:	d7 e1 77 f4 	l.sw -12(r1),r14
    2504:	9c 21 ff f4 	l.addi r1,r1,-12
    2508:	18 60 e0 00 	l.movhi r3,0xe000
    250c:	a8 63 00 10 	l.ori r3,r3,0x10
    2510:	85 c3 00 00 	l.lwz r14,0(r3)
    2514:	07 ff ff dc 	l.jal 2484 <optimsoc_get_relcoreid>
    2518:	15 00 00 00 	l.nop 0x0
    251c:	a8 6b 00 00 	l.ori r3,r11,0x0
    2520:	e0 6e 18 00 	l.add r3,r14,r3
    2524:	a9 63 00 00 	l.ori r11,r3,0x0
    2528:	a8 22 00 00 	l.ori r1,r2,0x0
    252c:	84 41 ff f8 	l.lwz r2,-8(r1)
    2530:	85 21 ff fc 	l.lwz r9,-4(r1)
    2534:	85 c1 ff f4 	l.lwz r14,-12(r1)
    2538:	44 00 48 00 	l.jr r9
    253c:	15 00 00 00 	l.nop 0x0

00002540 <main>:
    2540:	d7 e1 17 f8 	l.sw -8(r1),r2
    2544:	9c 41 00 00 	l.addi r2,r1,0
    2548:	d7 e1 4f fc 	l.sw -4(r1),r9
    254c:	d7 e1 77 ec 	l.sw -20(r1),r14
    2550:	d7 e1 97 f0 	l.sw -16(r1),r18
    2554:	d7 e1 a7 f4 	l.sw -12(r1),r20
    2558:	9c 21 ff d8 	l.addi r1,r1,-40
    255c:	9c 60 00 00 	l.addi r3,r0,0
    2560:	04 00 00 97 	l.jal 27bc <optimsoc_init>
    2564:	15 00 00 00 	l.nop 0x0
    2568:	07 ff ff c7 	l.jal 2484 <optimsoc_get_relcoreid>
    256c:	15 00 00 00 	l.nop 0x0
    2570:	a8 6b 00 00 	l.ori r3,r11,0x0
    2574:	9d c3 00 01 	l.addi r14,r3,1
    2578:	07 ff ff d1 	l.jal 24bc <optimsoc_get_tilenumcores>
    257c:	15 00 00 00 	l.nop 0x0
    2580:	aa 8b 00 00 	l.ori r20,r11,0x0
    2584:	07 ff ff b6 	l.jal 245c <optimsoc_get_tileid>
    2588:	15 00 00 00 	l.nop 0x0
    258c:	a8 6b 00 00 	l.ori r3,r11,0x0
    2590:	9e 43 00 01 	l.addi r18,r3,1
    2594:	07 ff ff d8 	l.jal 24f4 <optimsoc_get_abscoreid>
    2598:	15 00 00 00 	l.nop 0x0
    259c:	a8 6b 00 00 	l.ori r3,r11,0x0
    25a0:	9c 63 00 01 	l.addi r3,r3,1
    25a4:	d4 01 18 0c 	l.sw 12(r1),r3
    25a8:	d4 01 90 08 	l.sw 8(r1),r18
    25ac:	d4 01 a0 04 	l.sw 4(r1),r20
    25b0:	d4 01 70 00 	l.sw 0(r1),r14
    25b4:	18 60 00 01 	l.movhi r3,0x1
    25b8:	a8 63 23 54 	l.ori r3,r3,0x2354
    25bc:	04 00 01 15 	l.jal 2a10 <printf>
    25c0:	15 00 00 00 	l.nop 0x0
    25c4:	04 00 00 2d 	l.jal 2678 <optimsoc_get_numct>
    25c8:	15 00 00 00 	l.nop 0x0
    25cc:	a8 6b 00 00 	l.ori r3,r11,0x0
    25d0:	d4 01 18 00 	l.sw 0(r1),r3
    25d4:	18 60 00 01 	l.movhi r3,0x1
    25d8:	a8 63 23 9c 	l.ori r3,r3,0x239c
    25dc:	04 00 01 0d 	l.jal 2a10 <printf>
    25e0:	15 00 00 00 	l.nop 0x0
    25e4:	9c 60 00 00 	l.addi r3,r0,0
    25e8:	d7 e2 1f e8 	l.sw -24(r2),r3
    25ec:	00 00 00 12 	l.j 2634 <main+0xf4>
    25f0:	15 00 00 00 	l.nop 0x0
    25f4:	84 62 ff e8 	l.lwz r3,-24(r2)
    25f8:	9d c3 00 01 	l.addi r14,r3,1
    25fc:	84 62 ff e8 	l.lwz r3,-24(r2)
    2600:	04 00 00 63 	l.jal 278c <optimsoc_get_ranktile>
    2604:	15 00 00 00 	l.nop 0x0
    2608:	a8 6b 00 00 	l.ori r3,r11,0x0
    260c:	9c 63 00 01 	l.addi r3,r3,1
    2610:	d4 01 18 04 	l.sw 4(r1),r3
    2614:	d4 01 70 00 	l.sw 0(r1),r14
    2618:	18 60 00 01 	l.movhi r3,0x1
    261c:	a8 63 23 b9 	l.ori r3,r3,0x23b9
    2620:	04 00 00 fc 	l.jal 2a10 <printf>
    2624:	15 00 00 00 	l.nop 0x0
    2628:	84 62 ff e8 	l.lwz r3,-24(r2)
    262c:	9c 63 00 01 	l.addi r3,r3,1
    2630:	d7 e2 1f e8 	l.sw -24(r2),r3
    2634:	04 00 00 11 	l.jal 2678 <optimsoc_get_numct>
    2638:	15 00 00 00 	l.nop 0x0
    263c:	a8 8b 00 00 	l.ori r4,r11,0x0
    2640:	84 62 ff e8 	l.lwz r3,-24(r2)
    2644:	e4 44 18 00 	l.sfgtu r4,r3
    2648:	13 ff ff eb 	l.bf 25f4 <main+0xb4>
    264c:	15 00 00 00 	l.nop 0x0
    2650:	9c 60 00 00 	l.addi r3,r0,0
    2654:	a9 63 00 00 	l.ori r11,r3,0x0
    2658:	a8 22 00 00 	l.ori r1,r2,0x0
    265c:	84 41 ff f8 	l.lwz r2,-8(r1)
    2660:	85 21 ff fc 	l.lwz r9,-4(r1)
    2664:	85 c1 ff ec 	l.lwz r14,-20(r1)
    2668:	86 41 ff f0 	l.lwz r18,-16(r1)
    266c:	86 81 ff f4 	l.lwz r20,-12(r1)
    2670:	44 00 48 00 	l.jr r9
    2674:	15 00 00 00 	l.nop 0x0

00002678 <optimsoc_get_numct>:
    2678:	18 60 e0 00 	l.movhi r3,0xe000
    267c:	d7 e1 0f fc 	l.sw -4(r1),r1
    2680:	a8 63 00 28 	l.ori r3,r3,0x28
    2684:	9c 21 ff fc 	l.addi r1,r1,-4
    2688:	85 63 00 00 	l.lwz r11,0(r3)
    268c:	9c 21 00 04 	l.addi r1,r1,4
    2690:	44 00 48 00 	l.jr r9
    2694:	84 21 ff fc 	l.lwz r1,-4(r1)

00002698 <optimsoc_get_ctrank>:
    2698:	18 60 e0 00 	l.movhi r3,0xe000
    269c:	d7 e1 0f fc 	l.sw -4(r1),r1
    26a0:	a8 a3 00 28 	l.ori r5,r3,0x28
    26a4:	84 c3 00 00 	l.lwz r6,0(r3)
    26a8:	84 85 00 00 	l.lwz r4,0(r5)
    26ac:	bc 04 00 00 	l.sfeqi r4,0
    26b0:	10 00 00 13 	l.bf 26fc <optimsoc_get_ctrank+0x64>
    26b4:	9c 21 ff fc 	l.addi r1,r1,-4
    26b8:	a8 83 02 00 	l.ori r4,r3,0x200
    26bc:	94 84 00 00 	l.lhz r4,0(r4)
    26c0:	e4 06 20 00 	l.sfeq r6,r4
    26c4:	10 00 00 12 	l.bf 270c <optimsoc_get_ctrank+0x74>
    26c8:	15 00 00 00 	l.nop 0x0
    26cc:	a8 63 02 02 	l.ori r3,r3,0x202
    26d0:	00 00 00 06 	l.j 26e8 <optimsoc_get_ctrank+0x50>
    26d4:	9d 60 00 00 	l.addi r11,r0,0
    26d8:	94 83 00 00 	l.lhz r4,0(r3)
    26dc:	e4 06 20 00 	l.sfeq r6,r4
    26e0:	10 00 00 08 	l.bf 2700 <optimsoc_get_ctrank+0x68>
    26e4:	9c 63 00 02 	l.addi r3,r3,2
    26e8:	84 85 00 00 	l.lwz r4,0(r5)
    26ec:	9d 6b 00 01 	l.addi r11,r11,1
    26f0:	e4 8b 20 00 	l.sfltu r11,r4
    26f4:	13 ff ff f9 	l.bf 26d8 <optimsoc_get_ctrank+0x40>
    26f8:	15 00 00 00 	l.nop 0x0
    26fc:	9d 60 ff ff 	l.addi r11,r0,-1
    2700:	9c 21 00 04 	l.addi r1,r1,4
    2704:	44 00 48 00 	l.jr r9
    2708:	84 21 ff fc 	l.lwz r1,-4(r1)
    270c:	03 ff ff fd 	l.j 2700 <optimsoc_get_ctrank+0x68>
    2710:	9d 60 00 00 	l.addi r11,r0,0

00002714 <optimsoc_get_tilerank>:
    2714:	18 80 e0 00 	l.movhi r4,0xe000
    2718:	d7 e1 0f fc 	l.sw -4(r1),r1
    271c:	a8 c4 00 28 	l.ori r6,r4,0x28
    2720:	9c 21 ff fc 	l.addi r1,r1,-4
    2724:	84 a6 00 00 	l.lwz r5,0(r6)
    2728:	bc 05 00 00 	l.sfeqi r5,0
    272c:	10 00 00 12 	l.bf 2774 <optimsoc_get_tilerank+0x60>
    2730:	a8 a4 02 00 	l.ori r5,r4,0x200
    2734:	94 a5 00 00 	l.lhz r5,0(r5)
    2738:	e4 03 28 00 	l.sfeq r3,r5
    273c:	10 00 00 12 	l.bf 2784 <optimsoc_get_tilerank+0x70>
    2740:	15 00 00 00 	l.nop 0x0
    2744:	a8 84 02 02 	l.ori r4,r4,0x202
    2748:	00 00 00 06 	l.j 2760 <optimsoc_get_tilerank+0x4c>
    274c:	9d 60 00 00 	l.addi r11,r0,0
    2750:	94 a4 00 00 	l.lhz r5,0(r4)
    2754:	e4 05 18 00 	l.sfeq r5,r3
    2758:	10 00 00 08 	l.bf 2778 <optimsoc_get_tilerank+0x64>
    275c:	9c 84 00 02 	l.addi r4,r4,2
    2760:	84 a6 00 00 	l.lwz r5,0(r6)
    2764:	9d 6b 00 01 	l.addi r11,r11,1
    2768:	e4 8b 28 00 	l.sfltu r11,r5
    276c:	13 ff ff f9 	l.bf 2750 <optimsoc_get_tilerank+0x3c>
    2770:	15 00 00 00 	l.nop 0x0
    2774:	9d 60 ff ff 	l.addi r11,r0,-1
    2778:	9c 21 00 04 	l.addi r1,r1,4
    277c:	44 00 48 00 	l.jr r9
    2780:	84 21 ff fc 	l.lwz r1,-4(r1)
    2784:	03 ff ff fd 	l.j 2778 <optimsoc_get_tilerank+0x64>
    2788:	9d 60 00 00 	l.addi r11,r0,0

0000278c <optimsoc_get_ranktile>:
    278c:	d7 e1 17 fc 	l.sw -4(r1),r2
    2790:	18 40 e0 00 	l.movhi r2,0xe000
    2794:	e0 63 18 00 	l.add r3,r3,r3
    2798:	a8 42 02 00 	l.ori r2,r2,0x200
    279c:	d7 e1 0f f8 	l.sw -8(r1),r1
    27a0:	e0 63 10 00 	l.add r3,r3,r2
    27a4:	9c 21 ff f8 	l.addi r1,r1,-8
    27a8:	95 63 00 00 	l.lhz r11,0(r3)
    27ac:	9c 21 00 08 	l.addi r1,r1,8
    27b0:	84 21 ff f8 	l.lwz r1,-8(r1)
    27b4:	44 00 48 00 	l.jr r9
    27b8:	84 41 ff fc 	l.lwz r2,-4(r1)

000027bc <optimsoc_init>:
    27bc:	d7 e1 0f fc 	l.sw -4(r1),r1
    27c0:	9c 21 ff fc 	l.addi r1,r1,-4
    27c4:	9c 21 00 04 	l.addi r1,r1,4
    27c8:	44 00 48 00 	l.jr r9
    27cc:	84 21 ff fc 	l.lwz r1,-4(r1)

000027d0 <optimsoc_mainmem_size>:
    27d0:	18 60 e0 00 	l.movhi r3,0xe000
    27d4:	d7 e1 0f fc 	l.sw -4(r1),r1
    27d8:	a8 63 00 1c 	l.ori r3,r3,0x1c
    27dc:	9c 21 ff fc 	l.addi r1,r1,-4
    27e0:	85 63 00 00 	l.lwz r11,0(r3)
    27e4:	9c 21 00 04 	l.addi r1,r1,4
    27e8:	44 00 48 00 	l.jr r9
    27ec:	84 21 ff fc 	l.lwz r1,-4(r1)

000027f0 <optimsoc_mainmem_tile>:
    27f0:	18 60 e0 00 	l.movhi r3,0xe000
    27f4:	d7 e1 0f fc 	l.sw -4(r1),r1
    27f8:	a8 63 00 20 	l.ori r3,r3,0x20
    27fc:	9c 21 ff fc 	l.addi r1,r1,-4
    2800:	85 63 00 00 	l.lwz r11,0(r3)
    2804:	9c 21 00 04 	l.addi r1,r1,4
    2808:	44 00 48 00 	l.jr r9
    280c:	84 21 ff fc 	l.lwz r1,-4(r1)

00002810 <optimsoc_noc_maxpacketsize>:
    2810:	d7 e1 0f fc 	l.sw -4(r1),r1
    2814:	9c 21 ff fc 	l.addi r1,r1,-4
    2818:	9d 60 00 20 	l.addi r11,r0,32
    281c:	9c 21 00 04 	l.addi r1,r1,4
    2820:	44 00 48 00 	l.jr r9
    2824:	84 21 ff fc 	l.lwz r1,-4(r1)

00002828 <optimsoc_trace_definesection>:
    2828:	d7 e1 0f fc 	l.sw -4(r1),r1
    282c:	a8 a3 00 00 	l.ori r5,r3,0x0
    2830:	9c 21 ff fc 	l.addi r1,r1,-4
    2834:	9c 65 00 00 	l.addi r3,r5,0
    2838:	15 00 00 20 	l.nop 0x20
    283c:	90 a4 00 00 	l.lbs r5,0(r4)
    2840:	bc 05 00 00 	l.sfeqi r5,0
    2844:	10 00 00 09 	l.bf 2868 <optimsoc_trace_definesection+0x40>
    2848:	15 00 00 00 	l.nop 0x0
    284c:	9c 65 00 00 	l.addi r3,r5,0
    2850:	15 00 00 21 	l.nop 0x21
    2854:	9c 84 00 01 	l.addi r4,r4,1
    2858:	90 a4 00 00 	l.lbs r5,0(r4)
    285c:	bc 25 00 00 	l.sfnei r5,0
    2860:	13 ff ff fb 	l.bf 284c <optimsoc_trace_definesection+0x24>
    2864:	15 00 00 00 	l.nop 0x0
    2868:	9c 21 00 04 	l.addi r1,r1,4
    286c:	44 00 48 00 	l.jr r9
    2870:	84 21 ff fc 	l.lwz r1,-4(r1)

00002874 <optimsoc_trace_defineglobalsection>:
    2874:	d7 e1 0f fc 	l.sw -4(r1),r1
    2878:	9c 21 ff fc 	l.addi r1,r1,-4
    287c:	9c 21 00 04 	l.addi r1,r1,4
    2880:	44 00 48 00 	l.jr r9
    2884:	84 21 ff fc 	l.lwz r1,-4(r1)

00002888 <optimsoc_trace_section>:
    2888:	d7 e1 0f fc 	l.sw -4(r1),r1
    288c:	a8 83 00 00 	l.ori r4,r3,0x0
    2890:	9c 21 ff fc 	l.addi r1,r1,-4
    2894:	9c 64 00 00 	l.addi r3,r4,0
    2898:	15 00 00 22 	l.nop 0x22
    289c:	9c 21 00 04 	l.addi r1,r1,4
    28a0:	44 00 48 00 	l.jr r9
    28a4:	84 21 ff fc 	l.lwz r1,-4(r1)

000028a8 <optimsoc_trace_kernelsection>:
    28a8:	d7 e1 0f fc 	l.sw -4(r1),r1
    28ac:	9c 80 00 00 	l.addi r4,r0,0
    28b0:	9c 21 ff fc 	l.addi r1,r1,-4
    28b4:	9c 64 00 00 	l.addi r3,r4,0
    28b8:	15 00 00 23 	l.nop 0x23
    28bc:	9c 21 00 04 	l.addi r1,r1,4
    28c0:	44 00 48 00 	l.jr r9
    28c4:	84 21 ff fc 	l.lwz r1,-4(r1)

000028c8 <optimsoc_mutex_init>:
    28c8:	d7 e1 17 fc 	l.sw -4(r1),r2
    28cc:	d7 e1 0f f8 	l.sw -8(r1),r1
    28d0:	9c 21 ff f8 	l.addi r1,r1,-8
    28d4:	9c 40 00 00 	l.addi r2,r0,0
    28d8:	9c 21 00 08 	l.addi r1,r1,8
    28dc:	d4 03 10 00 	l.sw 0(r3),r2
    28e0:	84 21 ff f8 	l.lwz r1,-8(r1)
    28e4:	44 00 48 00 	l.jr r9
    28e8:	84 41 ff fc 	l.lwz r2,-4(r1)

000028ec <optimsoc_mutex_lock>:
    28ec:	d7 e1 17 f8 	l.sw -8(r1),r2
    28f0:	d7 e1 4f fc 	l.sw -4(r1),r9
    28f4:	d7 e1 0f f4 	l.sw -12(r1),r1
    28f8:	a8 43 00 00 	l.ori r2,r3,0x0
    28fc:	9c 21 ff f4 	l.addi r1,r1,-12
    2900:	04 00 30 06 	l.jal e918 <or1k_sync_tsl>
    2904:	a8 62 00 00 	l.ori r3,r2,0x0
    2908:	bc 2b 00 00 	l.sfnei r11,0
    290c:	13 ff ff fd 	l.bf 2900 <optimsoc_mutex_lock+0x14>
    2910:	15 00 00 00 	l.nop 0x0
    2914:	9c 21 00 0c 	l.addi r1,r1,12
    2918:	85 21 ff fc 	l.lwz r9,-4(r1)
    291c:	84 21 ff f4 	l.lwz r1,-12(r1)
    2920:	44 00 48 00 	l.jr r9
    2924:	84 41 ff f8 	l.lwz r2,-8(r1)

00002928 <optimsoc_mutex_unlock>:
    2928:	d7 e1 17 fc 	l.sw -4(r1),r2
    292c:	d7 e1 0f f8 	l.sw -8(r1),r1
    2930:	9c 21 ff f8 	l.addi r1,r1,-8
    2934:	9c 40 00 00 	l.addi r2,r0,0
    2938:	9c 21 00 08 	l.addi r1,r1,8
    293c:	d4 03 10 00 	l.sw 0(r3),r2
    2940:	84 21 ff f8 	l.lwz r1,-8(r1)
    2944:	44 00 48 00 	l.jr r9
    2948:	84 41 ff fc 	l.lwz r2,-4(r1)

0000294c <optimsoc_get_seed>:
    294c:	18 60 e0 00 	l.movhi r3,0xe000
    2950:	d7 e1 0f fc 	l.sw -4(r1),r1
    2954:	a8 63 00 2c 	l.ori r3,r3,0x2c
    2958:	9c 21 ff fc 	l.addi r1,r1,-4
    295c:	85 63 00 00 	l.lwz r11,0(r3)
    2960:	9c 21 00 04 	l.addi r1,r1,4
    2964:	44 00 48 00 	l.jr r9
    2968:	84 21 ff fc 	l.lwz r1,-4(r1)

0000296c <atexit>:
    296c:	9c c0 00 00 	l.addi r6,r0,0
    2970:	d7 e1 4f fc 	l.sw -4(r1),r9
    2974:	d7 e1 0f f8 	l.sw -8(r1),r1
    2978:	a8 83 00 00 	l.ori r4,r3,0x0
    297c:	9c 21 ff f8 	l.addi r1,r1,-8
    2980:	a8 a6 00 00 	l.ori r5,r6,0x0
    2984:	04 00 09 aa 	l.jal 502c <__register_exitproc>
    2988:	a8 66 00 00 	l.ori r3,r6,0x0
    298c:	9c 21 00 08 	l.addi r1,r1,8
    2990:	85 21 ff fc 	l.lwz r9,-4(r1)
    2994:	44 00 48 00 	l.jr r9
    2998:	84 21 ff f8 	l.lwz r1,-8(r1)

0000299c <exit>:
    299c:	d7 e1 17 f8 	l.sw -8(r1),r2
    29a0:	d7 e1 4f fc 	l.sw -4(r1),r9
    29a4:	d7 e1 0f f4 	l.sw -12(r1),r1
    29a8:	9c 80 00 00 	l.addi r4,r0,0
    29ac:	9c 21 ff f4 	l.addi r1,r1,-12
    29b0:	04 00 09 eb 	l.jal 515c <__call_exitprocs>
    29b4:	a8 43 00 00 	l.ori r2,r3,0x0
    29b8:	18 60 00 01 	l.movhi r3,0x1
    29bc:	a8 63 23 d0 	l.ori r3,r3,0x23d0
    29c0:	84 63 00 00 	l.lwz r3,0(r3)
    29c4:	84 83 00 3c 	l.lwz r4,60(r3)
    29c8:	bc 04 00 00 	l.sfeqi r4,0
    29cc:	10 00 00 04 	l.bf 29dc <exit+0x40>
    29d0:	15 00 00 00 	l.nop 0x0
    29d4:	48 00 20 00 	l.jalr r4
    29d8:	15 00 00 00 	l.nop 0x0
    29dc:	04 00 2b 98 	l.jal d83c <_exit>
    29e0:	a8 62 00 00 	l.ori r3,r2,0x0

000029e4 <_printf_r>:
    29e4:	d7 e1 4f fc 	l.sw -4(r1),r9
    29e8:	d7 e1 0f f8 	l.sw -8(r1),r1
    29ec:	9c 21 ff f8 	l.addi r1,r1,-8
    29f0:	a8 a4 00 00 	l.ori r5,r4,0x0
    29f4:	9c c1 00 08 	l.addi r6,r1,8
    29f8:	04 00 00 15 	l.jal 2a4c <_vfprintf_r>
    29fc:	84 83 00 08 	l.lwz r4,8(r3)
    2a00:	9c 21 00 08 	l.addi r1,r1,8
    2a04:	85 21 ff fc 	l.lwz r9,-4(r1)
    2a08:	44 00 48 00 	l.jr r9
    2a0c:	84 21 ff f8 	l.lwz r1,-8(r1)

00002a10 <printf>:
    2a10:	d7 e1 4f fc 	l.sw -4(r1),r9
    2a14:	d7 e1 0f f8 	l.sw -8(r1),r1
    2a18:	9c 21 ff f4 	l.addi r1,r1,-12
    2a1c:	04 00 15 92 	l.jal 8064 <__getreent>
    2a20:	d4 01 18 00 	l.sw 0(r1),r3
    2a24:	84 61 00 00 	l.lwz r3,0(r1)
    2a28:	9c c1 00 0c 	l.addi r6,r1,12
    2a2c:	a8 a3 00 00 	l.ori r5,r3,0x0
    2a30:	84 8b 00 08 	l.lwz r4,8(r11)
    2a34:	04 00 00 06 	l.jal 2a4c <_vfprintf_r>
    2a38:	a8 6b 00 00 	l.ori r3,r11,0x0
    2a3c:	9c 21 00 0c 	l.addi r1,r1,12
    2a40:	85 21 ff fc 	l.lwz r9,-4(r1)
    2a44:	44 00 48 00 	l.jr r9
    2a48:	84 21 ff f8 	l.lwz r1,-8(r1)

00002a4c <_vfprintf_r>:
    2a4c:	d7 e1 4f fc 	l.sw -4(r1),r9
    2a50:	d7 e1 97 e0 	l.sw -32(r1),r18
    2a54:	d7 e1 b7 e8 	l.sw -24(r1),r22
    2a58:	d7 e1 d7 f0 	l.sw -16(r1),r26
    2a5c:	d7 e1 0f d4 	l.sw -44(r1),r1
    2a60:	d7 e1 17 d8 	l.sw -40(r1),r2
    2a64:	d7 e1 77 dc 	l.sw -36(r1),r14
    2a68:	d7 e1 a7 e4 	l.sw -28(r1),r20
    2a6c:	d7 e1 c7 ec 	l.sw -20(r1),r24
    2a70:	d7 e1 e7 f4 	l.sw -12(r1),r28
    2a74:	d7 e1 f7 f8 	l.sw -8(r1),r30
    2a78:	9c 21 fe ec 	l.addi r1,r1,-276
    2a7c:	aa c3 00 00 	l.ori r22,r3,0x0
    2a80:	ab 44 00 00 	l.ori r26,r4,0x0
    2a84:	aa 45 00 00 	l.ori r18,r5,0x0
    2a88:	04 00 15 b9 	l.jal 816c <_localeconv_r>
    2a8c:	d4 01 30 2c 	l.sw 44(r1),r6
    2a90:	85 6b 00 00 	l.lwz r11,0(r11)
    2a94:	a8 6b 00 00 	l.ori r3,r11,0x0
    2a98:	04 00 1f cf 	l.jal a9d4 <strlen>
    2a9c:	d4 01 58 44 	l.sw 68(r1),r11
    2aa0:	bc 16 00 00 	l.sfeqi r22,0
    2aa4:	10 00 00 06 	l.bf 2abc <_vfprintf_r+0x70>
    2aa8:	d4 01 58 50 	l.sw 80(r1),r11
    2aac:	84 56 00 38 	l.lwz r2,56(r22)
    2ab0:	bc 22 00 00 	l.sfnei r2,0
    2ab4:	0c 00 00 ad 	l.bnf 2d68 <_vfprintf_r+0x31c>
    2ab8:	15 00 00 00 	l.nop 0x0
    2abc:	98 7a 00 0c 	l.lhs r3,12(r26)
    2ac0:	a4 43 ff ff 	l.andi r2,r3,0xffff
    2ac4:	a4 82 20 00 	l.andi r4,r2,0x2000
    2ac8:	bc 24 00 00 	l.sfnei r4,0
    2acc:	10 00 00 08 	l.bf 2aec <_vfprintf_r+0xa0>
    2ad0:	9c a0 df ff 	l.addi r5,r0,-8193
    2ad4:	84 9a 00 64 	l.lwz r4,100(r26)
    2ad8:	a8 43 20 00 	l.ori r2,r3,0x2000
    2adc:	e0 64 28 03 	l.and r3,r4,r5
    2ae0:	dc 1a 10 0c 	l.sh 12(r26),r2
    2ae4:	d4 1a 18 64 	l.sw 100(r26),r3
    2ae8:	a4 42 ff ff 	l.andi r2,r2,0xffff
    2aec:	a4 62 00 08 	l.andi r3,r2,0x8
    2af0:	bc 03 00 00 	l.sfeqi r3,0
    2af4:	10 00 00 65 	l.bf 2c88 <_vfprintf_r+0x23c>
    2af8:	a8 9a 00 00 	l.ori r4,r26,0x0
    2afc:	84 7a 00 10 	l.lwz r3,16(r26)
    2b00:	bc 23 00 00 	l.sfnei r3,0
    2b04:	0c 00 00 61 	l.bnf 2c88 <_vfprintf_r+0x23c>
    2b08:	a4 42 00 1a 	l.andi r2,r2,0x1a
    2b0c:	bc 22 00 0a 	l.sfnei r2,10
    2b10:	0c 00 00 68 	l.bnf 2cb0 <_vfprintf_r+0x264>
    2b14:	9c 41 00 a8 	l.addi r2,r1,168
    2b18:	9c e0 00 00 	l.addi r7,r0,0
    2b1c:	d4 01 10 1c 	l.sw 28(r1),r2
    2b20:	d4 01 10 74 	l.sw 116(r1),r2
    2b24:	a9 82 00 00 	l.ori r12,r2,0x0
    2b28:	9c 41 00 74 	l.addi r2,r1,116
    2b2c:	d4 01 38 3c 	l.sw 60(r1),r7
    2b30:	d4 01 10 18 	l.sw 24(r1),r2
    2b34:	9c 41 00 64 	l.addi r2,r1,100
    2b38:	d4 01 38 7c 	l.sw 124(r1),r7
    2b3c:	d4 01 10 14 	l.sw 20(r1),r2
    2b40:	9c 41 00 a7 	l.addi r2,r1,167
    2b44:	d4 01 38 78 	l.sw 120(r1),r7
    2b48:	d4 01 38 48 	l.sw 72(r1),r7
    2b4c:	d4 01 38 4c 	l.sw 76(r1),r7
    2b50:	d4 01 38 54 	l.sw 84(r1),r7
    2b54:	d4 01 38 30 	l.sw 48(r1),r7
    2b58:	d4 01 10 10 	l.sw 16(r1),r2
    2b5c:	90 52 00 00 	l.lbs r2,0(r18)
    2b60:	a4 62 00 ff 	l.andi r3,r2,0xff
    2b64:	bc 03 00 00 	l.sfeqi r3,0
    2b68:	10 00 00 25 	l.bf 2bfc <_vfprintf_r+0x1b0>
    2b6c:	a9 d2 00 00 	l.ori r14,r18,0x0
    2b70:	ac 42 00 25 	l.xori r2,r2,37
    2b74:	a4 42 00 ff 	l.andi r2,r2,0xff
    2b78:	bc 02 00 00 	l.sfeqi r2,0
    2b7c:	0c 00 00 0a 	l.bnf 2ba4 <_vfprintf_r+0x158>
    2b80:	9d ce 00 01 	l.addi r14,r14,1
    2b84:	9d ce ff ff 	l.addi r14,r14,-1
    2b88:	00 00 00 1e 	l.j 2c00 <_vfprintf_r+0x1b4>
    2b8c:	90 4e 00 00 	l.lbs r2,0(r14)
    2b90:	a4 42 00 ff 	l.andi r2,r2,0xff
    2b94:	bc 22 00 00 	l.sfnei r2,0
    2b98:	0c 00 00 09 	l.bnf 2bbc <_vfprintf_r+0x170>
    2b9c:	e0 4e 90 02 	l.sub r2,r14,r18
    2ba0:	9d ce 00 01 	l.addi r14,r14,1
    2ba4:	90 4e 00 00 	l.lbs r2,0(r14)
    2ba8:	a4 62 00 ff 	l.andi r3,r2,0xff
    2bac:	bc 03 00 00 	l.sfeqi r3,0
    2bb0:	0f ff ff f8 	l.bnf 2b90 <_vfprintf_r+0x144>
    2bb4:	ac 42 00 25 	l.xori r2,r2,37
    2bb8:	e0 4e 90 02 	l.sub r2,r14,r18
    2bbc:	bc 02 00 00 	l.sfeqi r2,0
    2bc0:	10 00 00 0f 	l.bf 2bfc <_vfprintf_r+0x1b0>
    2bc4:	84 81 00 7c 	l.lwz r4,124(r1)
    2bc8:	84 61 00 78 	l.lwz r3,120(r1)
    2bcc:	e0 84 10 00 	l.add r4,r4,r2
    2bd0:	9c 63 00 01 	l.addi r3,r3,1
    2bd4:	d4 0c 90 00 	l.sw 0(r12),r18
    2bd8:	d4 0c 10 04 	l.sw 4(r12),r2
    2bdc:	d4 01 20 7c 	l.sw 124(r1),r4
    2be0:	bd 43 00 07 	l.sfgtsi r3,7
    2be4:	10 00 00 3e 	l.bf 2cdc <_vfprintf_r+0x290>
    2be8:	d4 01 18 78 	l.sw 120(r1),r3
    2bec:	9d 8c 00 08 	l.addi r12,r12,8
    2bf0:	84 61 00 30 	l.lwz r3,48(r1)
    2bf4:	e0 63 10 00 	l.add r3,r3,r2
    2bf8:	d4 01 18 30 	l.sw 48(r1),r3
    2bfc:	90 4e 00 00 	l.lbs r2,0(r14)
    2c00:	bc 02 00 00 	l.sfeqi r2,0
    2c04:	10 00 00 3f 	l.bf 2d00 <_vfprintf_r+0x2b4>
    2c08:	9c a0 00 00 	l.addi r5,r0,0
    2c0c:	9c 80 00 00 	l.addi r4,r0,0
    2c10:	9e 4e 00 01 	l.addi r18,r14,1
    2c14:	d8 01 20 59 	l.sb 89(r1),r4
    2c18:	a8 e5 00 00 	l.ori r7,r5,0x0
    2c1c:	9c 40 ff ff 	l.addi r2,r0,-1
    2c20:	d4 01 28 24 	l.sw 36(r1),r5
    2c24:	a9 c5 00 00 	l.ori r14,r5,0x0
    2c28:	a8 85 00 00 	l.ori r4,r5,0x0
    2c2c:	92 92 00 00 	l.lbs r20,0(r18)
    2c30:	9e 52 00 01 	l.addi r18,r18,1
    2c34:	9c 74 ff e0 	l.addi r3,r20,-32
    2c38:	bc 43 00 58 	l.sfgtui r3,88
    2c3c:	10 00 02 30 	l.bf 34fc <_vfprintf_r+0xab0>
    2c40:	18 c0 00 01 	l.movhi r6,0x1
    2c44:	b8 63 00 02 	l.slli r3,r3,0x2
    2c48:	a8 c6 24 1c 	l.ori r6,r6,0x241c
    2c4c:	e0 63 30 00 	l.add r3,r3,r6
    2c50:	84 63 00 00 	l.lwz r3,0(r3)
    2c54:	44 00 18 00 	l.jr r3
    2c58:	15 00 00 00 	l.nop 0x0
    2c5c:	03 ff ff f4 	l.j 2c2c <_vfprintf_r+0x1e0>
    2c60:	a9 ce 00 10 	l.ori r14,r14,0x10
    2c64:	85 01 00 2c 	l.lwz r8,44(r1)
    2c68:	84 88 00 00 	l.lwz r4,0(r8)
    2c6c:	9d 08 00 04 	l.addi r8,r8,4
    2c70:	bd 64 00 00 	l.sfgesi r4,0
    2c74:	13 ff ff ee 	l.bf 2c2c <_vfprintf_r+0x1e0>
    2c78:	d4 01 40 2c 	l.sw 44(r1),r8
    2c7c:	e0 80 20 02 	l.sub r4,r0,r4
    2c80:	03 ff ff eb 	l.j 2c2c <_vfprintf_r+0x1e0>
    2c84:	a9 ce 00 04 	l.ori r14,r14,0x4
    2c88:	04 00 08 7a 	l.jal 4e70 <__swsetup_r>
    2c8c:	a8 76 00 00 	l.ori r3,r22,0x0
    2c90:	bc 0b 00 00 	l.sfeqi r11,0
    2c94:	0c 00 06 4f 	l.bnf 45d0 <_vfprintf_r+0x1b84>
    2c98:	15 00 00 00 	l.nop 0x0
    2c9c:	94 5a 00 0c 	l.lhz r2,12(r26)
    2ca0:	a4 42 00 1a 	l.andi r2,r2,0x1a
    2ca4:	bc 22 00 0a 	l.sfnei r2,10
    2ca8:	13 ff ff 9c 	l.bf 2b18 <_vfprintf_r+0xcc>
    2cac:	9c 41 00 a8 	l.addi r2,r1,168
    2cb0:	98 5a 00 0e 	l.lhs r2,14(r26)
    2cb4:	bd 82 00 00 	l.sfltsi r2,0
    2cb8:	13 ff ff 98 	l.bf 2b18 <_vfprintf_r+0xcc>
    2cbc:	9c 41 00 a8 	l.addi r2,r1,168
    2cc0:	84 c1 00 2c 	l.lwz r6,44(r1)
    2cc4:	a8 b2 00 00 	l.ori r5,r18,0x0
    2cc8:	a8 9a 00 00 	l.ori r4,r26,0x0
    2ccc:	04 00 08 30 	l.jal 4d8c <__sbprintf>
    2cd0:	a8 76 00 00 	l.ori r3,r22,0x0
    2cd4:	00 00 00 19 	l.j 2d38 <_vfprintf_r+0x2ec>
    2cd8:	9c 21 01 14 	l.addi r1,r1,276
    2cdc:	9c a1 00 74 	l.addi r5,r1,116
    2ce0:	a8 9a 00 00 	l.ori r4,r26,0x0
    2ce4:	04 00 1f c5 	l.jal abf8 <__sprint_r>
    2ce8:	a8 76 00 00 	l.ori r3,r22,0x0
    2cec:	bc 2b 00 00 	l.sfnei r11,0
    2cf0:	10 00 00 0b 	l.bf 2d1c <_vfprintf_r+0x2d0>
    2cf4:	9d 81 00 a8 	l.addi r12,r1,168
    2cf8:	03 ff ff bf 	l.j 2bf4 <_vfprintf_r+0x1a8>
    2cfc:	84 61 00 30 	l.lwz r3,48(r1)
    2d00:	84 41 00 7c 	l.lwz r2,124(r1)
    2d04:	bc 22 00 00 	l.sfnei r2,0
    2d08:	0c 00 00 05 	l.bnf 2d1c <_vfprintf_r+0x2d0>
    2d0c:	9c a1 00 74 	l.addi r5,r1,116
    2d10:	a8 9a 00 00 	l.ori r4,r26,0x0
    2d14:	04 00 1f b9 	l.jal abf8 <__sprint_r>
    2d18:	a8 76 00 00 	l.ori r3,r22,0x0
    2d1c:	94 5a 00 0c 	l.lhz r2,12(r26)
    2d20:	a4 42 00 40 	l.andi r2,r2,0x40
    2d24:	bc 22 00 00 	l.sfnei r2,0
    2d28:	10 00 00 03 	l.bf 2d34 <_vfprintf_r+0x2e8>
    2d2c:	9d 60 ff ff 	l.addi r11,r0,-1
    2d30:	85 61 00 30 	l.lwz r11,48(r1)
    2d34:	9c 21 01 14 	l.addi r1,r1,276
    2d38:	85 21 ff fc 	l.lwz r9,-4(r1)
    2d3c:	84 21 ff d4 	l.lwz r1,-44(r1)
    2d40:	84 41 ff d8 	l.lwz r2,-40(r1)
    2d44:	85 c1 ff dc 	l.lwz r14,-36(r1)
    2d48:	86 41 ff e0 	l.lwz r18,-32(r1)
    2d4c:	86 81 ff e4 	l.lwz r20,-28(r1)
    2d50:	86 c1 ff e8 	l.lwz r22,-24(r1)
    2d54:	87 01 ff ec 	l.lwz r24,-20(r1)
    2d58:	87 41 ff f0 	l.lwz r26,-16(r1)
    2d5c:	87 81 ff f4 	l.lwz r28,-12(r1)
    2d60:	44 00 48 00 	l.jr r9
    2d64:	87 c1 ff f8 	l.lwz r30,-8(r1)
    2d68:	04 00 12 f4 	l.jal 7938 <__sinit>
    2d6c:	a8 76 00 00 	l.ori r3,r22,0x0
    2d70:	03 ff ff 54 	l.j 2ac0 <_vfprintf_r+0x74>
    2d74:	98 7a 00 0c 	l.lhs r3,12(r26)
    2d78:	9c a0 00 01 	l.addi r5,r0,1
    2d7c:	03 ff ff ac 	l.j 2c2c <_vfprintf_r+0x1e0>
    2d80:	9c e0 00 2b 	l.addi r7,r0,43
    2d84:	85 01 00 2c 	l.lwz r8,44(r1)
    2d88:	9d 60 00 00 	l.addi r11,r0,0
    2d8c:	87 08 00 00 	l.lwz r24,0(r8)
    2d90:	d4 01 20 24 	l.sw 36(r1),r4
    2d94:	d8 01 58 59 	l.sb 89(r1),r11
    2d98:	bc 38 00 00 	l.sfnei r24,0
    2d9c:	0c 00 06 c2 	l.bnf 48a4 <_vfprintf_r+0x1e58>
    2da0:	9f 88 00 04 	l.addi r28,r8,4
    2da4:	bd 82 00 00 	l.sfltsi r2,0
    2da8:	10 00 06 4c 	l.bf 46d8 <_vfprintf_r+0x1c8c>
    2dac:	a8 a2 00 00 	l.ori r5,r2,0x0
    2db0:	9c 80 00 00 	l.addi r4,r0,0
    2db4:	a8 78 00 00 	l.ori r3,r24,0x0
    2db8:	04 00 18 00 	l.jal 8db8 <memchr>
    2dbc:	d4 01 60 08 	l.sw 8(r1),r12
    2dc0:	bc 2b 00 00 	l.sfnei r11,0
    2dc4:	0c 00 06 fc 	l.bnf 49b4 <_vfprintf_r+0x1f68>
    2dc8:	85 81 00 08 	l.lwz r12,8(r1)
    2dcc:	e1 6b c0 02 	l.sub r11,r11,r24
    2dd0:	d4 01 58 28 	l.sw 40(r1),r11
    2dd4:	bd 6b 00 00 	l.sfgesi r11,0
    2dd8:	0c 00 06 48 	l.bnf 46f8 <_vfprintf_r+0x1cac>
    2ddc:	a8 6b 00 00 	l.ori r3,r11,0x0
    2de0:	9c 40 00 00 	l.addi r2,r0,0
    2de4:	90 a1 00 59 	l.lbs r5,89(r1)
    2de8:	d4 01 18 20 	l.sw 32(r1),r3
    2dec:	d4 01 e0 2c 	l.sw 44(r1),r28
    2df0:	d4 01 10 40 	l.sw 64(r1),r2
    2df4:	bc 05 00 00 	l.sfeqi r5,0
    2df8:	10 00 00 04 	l.bf 2e08 <_vfprintf_r+0x3bc>
    2dfc:	84 61 00 20 	l.lwz r3,32(r1)
    2e00:	9c 63 00 01 	l.addi r3,r3,1
    2e04:	d4 01 18 20 	l.sw 32(r1),r3
    2e08:	a4 ce 00 02 	l.andi r6,r14,0x2
    2e0c:	bc 06 00 00 	l.sfeqi r6,0
    2e10:	10 00 00 05 	l.bf 2e24 <_vfprintf_r+0x3d8>
    2e14:	d4 01 30 34 	l.sw 52(r1),r6
    2e18:	84 e1 00 20 	l.lwz r7,32(r1)
    2e1c:	9c e7 00 02 	l.addi r7,r7,2
    2e20:	d4 01 38 20 	l.sw 32(r1),r7
    2e24:	a5 0e 00 84 	l.andi r8,r14,0x84
    2e28:	bc 08 00 00 	l.sfeqi r8,0
    2e2c:	0c 00 01 ed 	l.bnf 35e0 <_vfprintf_r+0xb94>
    2e30:	d4 01 40 38 	l.sw 56(r1),r8
    2e34:	85 61 00 24 	l.lwz r11,36(r1)
    2e38:	84 e1 00 20 	l.lwz r7,32(r1)
    2e3c:	e3 cb 38 02 	l.sub r30,r11,r7
    2e40:	bd 5e 00 00 	l.sfgtsi r30,0
    2e44:	0c 00 01 e7 	l.bnf 35e0 <_vfprintf_r+0xb94>
    2e48:	1b 80 00 01 	l.movhi r28,0x1
    2e4c:	bd 5e 00 10 	l.sfgtsi r30,16
    2e50:	84 e1 00 7c 	l.lwz r7,124(r1)
    2e54:	84 61 00 78 	l.lwz r3,120(r1)
    2e58:	0c 00 00 1e 	l.bnf 2ed0 <_vfprintf_r+0x484>
    2e5c:	ab 9c 25 90 	l.ori r28,r28,0x2590
    2e60:	00 00 00 06 	l.j 2e78 <_vfprintf_r+0x42c>
    2e64:	9d a0 00 10 	l.addi r13,r0,16
    2e68:	9f de ff f0 	l.addi r30,r30,-16
    2e6c:	bd 5e 00 10 	l.sfgtsi r30,16
    2e70:	0c 00 00 18 	l.bnf 2ed0 <_vfprintf_r+0x484>
    2e74:	9d 8c 00 08 	l.addi r12,r12,8
    2e78:	9c 63 00 01 	l.addi r3,r3,1
    2e7c:	9c e7 00 10 	l.addi r7,r7,16
    2e80:	d4 0c e0 00 	l.sw 0(r12),r28
    2e84:	d4 0c 68 04 	l.sw 4(r12),r13
    2e88:	d4 01 38 7c 	l.sw 124(r1),r7
    2e8c:	bd 43 00 07 	l.sfgtsi r3,7
    2e90:	0f ff ff f6 	l.bnf 2e68 <_vfprintf_r+0x41c>
    2e94:	d4 01 18 78 	l.sw 120(r1),r3
    2e98:	9c a1 00 74 	l.addi r5,r1,116
    2e9c:	a8 9a 00 00 	l.ori r4,r26,0x0
    2ea0:	a8 76 00 00 	l.ori r3,r22,0x0
    2ea4:	04 00 1f 55 	l.jal abf8 <__sprint_r>
    2ea8:	d4 01 68 0c 	l.sw 12(r1),r13
    2eac:	bc 2b 00 00 	l.sfnei r11,0
    2eb0:	13 ff ff 9b 	l.bf 2d1c <_vfprintf_r+0x2d0>
    2eb4:	85 a1 00 0c 	l.lwz r13,12(r1)
    2eb8:	9f de ff f0 	l.addi r30,r30,-16
    2ebc:	84 e1 00 7c 	l.lwz r7,124(r1)
    2ec0:	bd 5e 00 10 	l.sfgtsi r30,16
    2ec4:	84 61 00 78 	l.lwz r3,120(r1)
    2ec8:	13 ff ff ec 	l.bf 2e78 <_vfprintf_r+0x42c>
    2ecc:	9d 81 00 a8 	l.addi r12,r1,168
    2ed0:	9c 63 00 01 	l.addi r3,r3,1
    2ed4:	e0 fe 38 00 	l.add r7,r30,r7
    2ed8:	d4 0c e0 00 	l.sw 0(r12),r28
    2edc:	d4 0c f0 04 	l.sw 4(r12),r30
    2ee0:	d4 01 38 7c 	l.sw 124(r1),r7
    2ee4:	bd 43 00 07 	l.sfgtsi r3,7
    2ee8:	10 00 03 b6 	l.bf 3dc0 <_vfprintf_r+0x1374>
    2eec:	d4 01 18 78 	l.sw 120(r1),r3
    2ef0:	9d 8c 00 08 	l.addi r12,r12,8
    2ef4:	00 00 01 bc 	l.j 35e4 <_vfprintf_r+0xb98>
    2ef8:	90 a1 00 59 	l.lbs r5,89(r1)
    2efc:	bc 05 00 00 	l.sfeqi r5,0
    2f00:	0c 00 07 74 	l.bnf 4cd0 <_vfprintf_r+0x2284>
    2f04:	d4 01 20 24 	l.sw 36(r1),r4
    2f08:	a4 6e 00 10 	l.andi r3,r14,0x10
    2f0c:	bc 03 00 00 	l.sfeqi r3,0
    2f10:	10 00 00 92 	l.bf 3158 <_vfprintf_r+0x70c>
    2f14:	a4 ae 00 40 	l.andi r5,r14,0x40
    2f18:	9c 60 00 00 	l.addi r3,r0,0
    2f1c:	84 a1 00 2c 	l.lwz r5,44(r1)
    2f20:	d8 01 18 59 	l.sb 89(r1),r3
    2f24:	bd 82 00 00 	l.sfltsi r2,0
    2f28:	9c 85 00 04 	l.addi r4,r5,4
    2f2c:	10 00 05 d2 	l.bf 4674 <_vfprintf_r+0x1c28>
    2f30:	87 85 00 00 	l.lwz r28,0(r5)
    2f34:	e0 60 e0 02 	l.sub r3,r0,r28
    2f38:	9c c0 ff 7f 	l.addi r6,r0,-129
    2f3c:	e0 63 e0 04 	l.or r3,r3,r28
    2f40:	d4 01 20 2c 	l.sw 44(r1),r4
    2f44:	bd 83 00 00 	l.sfltsi r3,0
    2f48:	10 00 00 9a 	l.bf 31b0 <_vfprintf_r+0x764>
    2f4c:	e1 ce 30 03 	l.and r14,r14,r6
    2f50:	e0 60 10 02 	l.sub r3,r0,r2
    2f54:	e0 63 10 04 	l.or r3,r3,r2
    2f58:	b8 63 00 5f 	l.srli r3,r3,0x1f
    2f5c:	bc 23 00 00 	l.sfnei r3,0
    2f60:	10 00 00 94 	l.bf 31b0 <_vfprintf_r+0x764>
    2f64:	a8 a3 00 00 	l.ori r5,r3,0x0
    2f68:	00 00 00 46 	l.j 3080 <_vfprintf_r+0x634>
    2f6c:	15 00 00 00 	l.nop 0x0
    2f70:	03 ff ff 2f 	l.j 2c2c <_vfprintf_r+0x1e0>
    2f74:	a9 ce 00 80 	l.ori r14,r14,0x80
    2f78:	a8 d2 00 00 	l.ori r6,r18,0x0
    2f7c:	9c 80 00 00 	l.addi r4,r0,0
    2f80:	9c 74 ff d0 	l.addi r3,r20,-48
    2f84:	e0 84 20 00 	l.add r4,r4,r4
    2f88:	92 86 00 00 	l.lbs r20,0(r6)
    2f8c:	b8 c4 00 02 	l.slli r6,r4,0x2
    2f90:	9e 52 00 01 	l.addi r18,r18,1
    2f94:	e0 84 30 00 	l.add r4,r4,r6
    2f98:	e0 83 20 00 	l.add r4,r3,r4
    2f9c:	9c 74 ff d0 	l.addi r3,r20,-48
    2fa0:	bc a3 00 09 	l.sfleui r3,9
    2fa4:	13 ff ff f8 	l.bf 2f84 <_vfprintf_r+0x538>
    2fa8:	a8 d2 00 00 	l.ori r6,r18,0x0
    2fac:	03 ff ff 23 	l.j 2c38 <_vfprintf_r+0x1ec>
    2fb0:	9c 74 ff e0 	l.addi r3,r20,-32
    2fb4:	92 92 00 00 	l.lbs r20,0(r18)
    2fb8:	bc 14 00 2a 	l.sfeqi r20,42
    2fbc:	10 00 07 3b 	l.bf 4ca8 <_vfprintf_r+0x225c>
    2fc0:	9e 52 00 01 	l.addi r18,r18,1
    2fc4:	9c 74 ff d0 	l.addi r3,r20,-48
    2fc8:	a9 12 00 00 	l.ori r8,r18,0x0
    2fcc:	bc a3 00 09 	l.sfleui r3,9
    2fd0:	0f ff ff 19 	l.bnf 2c34 <_vfprintf_r+0x1e8>
    2fd4:	9c 40 00 00 	l.addi r2,r0,0
    2fd8:	e0 42 10 00 	l.add r2,r2,r2
    2fdc:	92 88 00 00 	l.lbs r20,0(r8)
    2fe0:	b8 c2 00 02 	l.slli r6,r2,0x2
    2fe4:	9e 48 00 01 	l.addi r18,r8,1
    2fe8:	e0 42 30 00 	l.add r2,r2,r6
    2fec:	e0 42 18 00 	l.add r2,r2,r3
    2ff0:	9c 74 ff d0 	l.addi r3,r20,-48
    2ff4:	bc a3 00 09 	l.sfleui r3,9
    2ff8:	13 ff ff f8 	l.bf 2fd8 <_vfprintf_r+0x58c>
    2ffc:	a9 12 00 00 	l.ori r8,r18,0x0
    3000:	bd 62 00 00 	l.sfgesi r2,0
    3004:	13 ff ff 0d 	l.bf 2c38 <_vfprintf_r+0x1ec>
    3008:	9c 74 ff e0 	l.addi r3,r20,-32
    300c:	03 ff ff 0b 	l.j 2c38 <_vfprintf_r+0x1ec>
    3010:	9c 40 ff ff 	l.addi r2,r0,-1
    3014:	9c c0 00 00 	l.addi r6,r0,0
    3018:	d4 01 20 24 	l.sw 36(r1),r4
    301c:	9c a0 00 78 	l.addi r5,r0,120
    3020:	9c 80 00 30 	l.addi r4,r0,48
    3024:	84 e1 00 2c 	l.lwz r7,44(r1)
    3028:	d8 01 30 59 	l.sb 89(r1),r6
    302c:	d8 01 20 5a 	l.sb 90(r1),r4
    3030:	d8 01 28 5b 	l.sb 91(r1),r5
    3034:	bd 62 00 00 	l.sfgesi r2,0
    3038:	9c c7 00 04 	l.addi r6,r7,4
    303c:	0c 00 05 88 	l.bnf 465c <_vfprintf_r+0x1c10>
    3040:	84 67 00 00 	l.lwz r3,0(r7)
    3044:	e0 80 18 02 	l.sub r4,r0,r3
    3048:	9d 60 ff 7f 	l.addi r11,r0,-129
    304c:	e0 84 18 04 	l.or r4,r4,r3
    3050:	e1 ce 58 03 	l.and r14,r14,r11
    3054:	d4 01 30 2c 	l.sw 44(r1),r6
    3058:	bd 84 00 00 	l.sfltsi r4,0
    305c:	10 00 04 da 	l.bf 43c4 <_vfprintf_r+0x1978>
    3060:	a9 ce 00 02 	l.ori r14,r14,0x2
    3064:	e0 a0 10 02 	l.sub r5,r0,r2
    3068:	e0 a5 10 04 	l.or r5,r5,r2
    306c:	b8 a5 00 5f 	l.srli r5,r5,0x1f
    3070:	bc 25 00 00 	l.sfnei r5,0
    3074:	10 00 04 d5 	l.bf 43c8 <_vfprintf_r+0x197c>
    3078:	18 c0 00 01 	l.movhi r6,0x1
    307c:	9e 80 00 78 	l.addi r20,r0,120
    3080:	9c 40 00 00 	l.addi r2,r0,0
    3084:	9f 01 00 a8 	l.addi r24,r1,168
    3088:	d4 01 10 28 	l.sw 40(r1),r2
    308c:	85 01 00 28 	l.lwz r8,40(r1)
    3090:	e5 68 10 00 	l.sfges r8,r2
    3094:	10 00 00 03 	l.bf 30a0 <_vfprintf_r+0x654>
    3098:	a8 68 00 00 	l.ori r3,r8,0x0
    309c:	a8 62 00 00 	l.ori r3,r2,0x0
    30a0:	9c e0 00 00 	l.addi r7,r0,0
    30a4:	d4 01 18 20 	l.sw 32(r1),r3
    30a8:	03 ff ff 53 	l.j 2df4 <_vfprintf_r+0x3a8>
    30ac:	d4 01 38 40 	l.sw 64(r1),r7
    30b0:	bc 05 00 00 	l.sfeqi r5,0
    30b4:	0c 00 07 0f 	l.bnf 4cf0 <_vfprintf_r+0x22a4>
    30b8:	d4 01 20 24 	l.sw 36(r1),r4
    30bc:	a9 ce 00 10 	l.ori r14,r14,0x10
    30c0:	a4 8e 00 10 	l.andi r4,r14,0x10
    30c4:	bc 04 00 00 	l.sfeqi r4,0
    30c8:	10 00 01 1a 	l.bf 3530 <_vfprintf_r+0xae4>
    30cc:	84 a1 00 2c 	l.lwz r5,44(r1)
    30d0:	9c 80 00 00 	l.addi r4,r0,0
    30d4:	d8 01 20 59 	l.sb 89(r1),r4
    30d8:	bd 82 00 00 	l.sfltsi r2,0
    30dc:	9c c5 00 04 	l.addi r6,r5,4
    30e0:	10 00 01 28 	l.bf 3580 <_vfprintf_r+0xb34>
    30e4:	84 65 00 00 	l.lwz r3,0(r5)
    30e8:	e0 80 18 02 	l.sub r4,r0,r3
    30ec:	9c e0 ff 7f 	l.addi r7,r0,-129
    30f0:	e0 84 18 04 	l.or r4,r4,r3
    30f4:	bd 84 00 00 	l.sfltsi r4,0
    30f8:	10 00 01 22 	l.bf 3580 <_vfprintf_r+0xb34>
    30fc:	e1 ce 38 03 	l.and r14,r14,r7
    3100:	e0 80 10 02 	l.sub r4,r0,r2
    3104:	e0 84 10 04 	l.or r4,r4,r2
    3108:	bd 84 00 00 	l.sfltsi r4,0
    310c:	10 00 01 1e 	l.bf 3584 <_vfprintf_r+0xb38>
    3110:	9c a1 00 a8 	l.addi r5,r1,168
    3114:	d4 01 30 2c 	l.sw 44(r1),r6
    3118:	a4 6e 00 01 	l.andi r3,r14,0x1
    311c:	bc 23 00 00 	l.sfnei r3,0
    3120:	10 00 03 1e 	l.bf 3d98 <_vfprintf_r+0x134c>
    3124:	84 c1 00 1c 	l.lwz r6,28(r1)
    3128:	a8 a3 00 00 	l.ori r5,r3,0x0
    312c:	9f 01 00 a8 	l.addi r24,r1,168
    3130:	03 ff ff d7 	l.j 308c <_vfprintf_r+0x640>
    3134:	d4 01 18 28 	l.sw 40(r1),r3
    3138:	bc 05 00 00 	l.sfeqi r5,0
    313c:	0c 00 06 f1 	l.bnf 4d00 <_vfprintf_r+0x22b4>
    3140:	d4 01 20 24 	l.sw 36(r1),r4
    3144:	a9 ce 00 10 	l.ori r14,r14,0x10
    3148:	a4 6e 00 10 	l.andi r3,r14,0x10
    314c:	bc 03 00 00 	l.sfeqi r3,0
    3150:	0f ff ff 72 	l.bnf 2f18 <_vfprintf_r+0x4cc>
    3154:	a4 ae 00 40 	l.andi r5,r14,0x40
    3158:	bc 05 00 00 	l.sfeqi r5,0
    315c:	10 00 04 b3 	l.bf 4428 <_vfprintf_r+0x19dc>
    3160:	85 61 00 2c 	l.lwz r11,44(r1)
    3164:	84 e1 00 2c 	l.lwz r7,44(r1)
    3168:	d8 01 18 59 	l.sb 89(r1),r3
    316c:	87 87 00 00 	l.lwz r28,0(r7)
    3170:	bd 82 00 00 	l.sfltsi r2,0
    3174:	9c 87 00 04 	l.addi r4,r7,4
    3178:	10 00 05 e6 	l.bf 4910 <_vfprintf_r+0x1ec4>
    317c:	a7 9c ff ff 	l.andi r28,r28,0xffff
    3180:	e0 60 10 02 	l.sub r3,r0,r2
    3184:	9d 00 ff 7f 	l.addi r8,r0,-129
    3188:	e0 63 10 04 	l.or r3,r3,r2
    318c:	d4 01 20 2c 	l.sw 44(r1),r4
    3190:	bd 83 00 00 	l.sfltsi r3,0
    3194:	10 00 00 07 	l.bf 31b0 <_vfprintf_r+0x764>
    3198:	e1 ce 40 03 	l.and r14,r14,r8
    319c:	e0 60 e0 02 	l.sub r3,r0,r28
    31a0:	b8 63 00 5f 	l.srli r3,r3,0x1f
    31a4:	bc 23 00 00 	l.sfnei r3,0
    31a8:	0f ff ff b6 	l.bnf 3080 <_vfprintf_r+0x634>
    31ac:	a8 a3 00 00 	l.ori r5,r3,0x0
    31b0:	9c a0 00 00 	l.addi r5,r0,0
    31b4:	bc 5c 00 09 	l.sfgtui r28,9
    31b8:	10 00 03 bb 	l.bf 40a4 <_vfprintf_r+0x1658>
    31bc:	ab cc 00 00 	l.ori r30,r12,0x0
    31c0:	85 01 00 1c 	l.lwz r8,28(r1)
    31c4:	85 61 00 10 	l.lwz r11,16(r1)
    31c8:	9f 9c 00 30 	l.addi r28,r28,48
    31cc:	e1 08 58 02 	l.sub r8,r8,r11
    31d0:	d8 01 e0 a7 	l.sb 167(r1),r28
    31d4:	d4 01 40 28 	l.sw 40(r1),r8
    31d8:	03 ff ff ad 	l.j 308c <_vfprintf_r+0x640>
    31dc:	9f 01 00 a7 	l.addi r24,r1,167
    31e0:	bc 05 00 00 	l.sfeqi r5,0
    31e4:	0c 00 06 c5 	l.bnf 4cf8 <_vfprintf_r+0x22ac>
    31e8:	d4 01 20 24 	l.sw 36(r1),r4
    31ec:	a4 6e 00 10 	l.andi r3,r14,0x10
    31f0:	18 c0 00 01 	l.movhi r6,0x1
    31f4:	bc 03 00 00 	l.sfeqi r3,0
    31f8:	10 00 00 9c 	l.bf 3468 <_vfprintf_r+0xa1c>
    31fc:	a8 c6 23 e6 	l.ori r6,r6,0x23e6
    3200:	84 81 00 2c 	l.lwz r4,44(r1)
    3204:	84 64 00 00 	l.lwz r3,0(r4)
    3208:	9c 84 00 04 	l.addi r4,r4,4
    320c:	d4 01 20 2c 	l.sw 44(r1),r4
    3210:	a4 8e 00 01 	l.andi r4,r14,0x1
    3214:	bc 04 00 00 	l.sfeqi r4,0
    3218:	10 00 03 16 	l.bf 3e70 <_vfprintf_r+0x1424>
    321c:	bd 82 00 00 	l.sfltsi r2,0
    3220:	bc 03 00 00 	l.sfeqi r3,0
    3224:	10 00 03 c8 	l.bf 4144 <_vfprintf_r+0x16f8>
    3228:	bd 82 00 00 	l.sfltsi r2,0
    322c:	9d 00 00 30 	l.addi r8,r0,48
    3230:	9d 60 00 00 	l.addi r11,r0,0
    3234:	d8 01 40 5a 	l.sb 90(r1),r8
    3238:	d8 01 a0 5b 	l.sb 91(r1),r20
    323c:	bd 62 00 00 	l.sfgesi r2,0
    3240:	0c 00 00 04 	l.bnf 3250 <_vfprintf_r+0x804>
    3244:	d8 01 58 59 	l.sb 89(r1),r11
    3248:	9c 80 ff 7f 	l.addi r4,r0,-129
    324c:	e1 ce 20 03 	l.and r14,r14,r4
    3250:	a9 ce 00 02 	l.ori r14,r14,0x2
    3254:	9f 01 00 a8 	l.addi r24,r1,168
    3258:	a4 83 00 0f 	l.andi r4,r3,0xf
    325c:	b8 63 00 44 	l.srli r3,r3,0x4
    3260:	e0 86 20 00 	l.add r4,r6,r4
    3264:	9f 18 ff ff 	l.addi r24,r24,-1
    3268:	8c 84 00 00 	l.lbz r4,0(r4)
    326c:	bc 23 00 00 	l.sfnei r3,0
    3270:	13 ff ff fa 	l.bf 3258 <_vfprintf_r+0x80c>
    3274:	d8 18 20 00 	l.sb 0(r24),r4
    3278:	84 e1 00 1c 	l.lwz r7,28(r1)
    327c:	a8 a3 00 00 	l.ori r5,r3,0x0
    3280:	e0 e7 c0 02 	l.sub r7,r7,r24
    3284:	03 ff ff 82 	l.j 308c <_vfprintf_r+0x640>
    3288:	d4 01 38 28 	l.sw 40(r1),r7
    328c:	84 61 00 2c 	l.lwz r3,44(r1)
    3290:	9c e0 00 01 	l.addi r7,r0,1
    3294:	84 43 00 00 	l.lwz r2,0(r3)
    3298:	9d 00 00 00 	l.addi r8,r0,0
    329c:	9c 63 00 04 	l.addi r3,r3,4
    32a0:	d4 01 20 24 	l.sw 36(r1),r4
    32a4:	d4 01 38 20 	l.sw 32(r1),r7
    32a8:	d8 01 10 80 	l.sb 128(r1),r2
    32ac:	d8 01 40 59 	l.sb 89(r1),r8
    32b0:	d4 01 18 2c 	l.sw 44(r1),r3
    32b4:	d4 01 38 28 	l.sw 40(r1),r7
    32b8:	9f 01 00 80 	l.addi r24,r1,128
    32bc:	9c a0 00 00 	l.addi r5,r0,0
    32c0:	a8 45 00 00 	l.ori r2,r5,0x0
    32c4:	03 ff fe d1 	l.j 2e08 <_vfprintf_r+0x3bc>
    32c8:	d4 01 28 40 	l.sw 64(r1),r5
    32cc:	bc 05 00 00 	l.sfeqi r5,0
    32d0:	13 ff ff 7c 	l.bf 30c0 <_vfprintf_r+0x674>
    32d4:	d4 01 20 24 	l.sw 36(r1),r4
    32d8:	03 ff ff 7a 	l.j 30c0 <_vfprintf_r+0x674>
    32dc:	d8 01 38 59 	l.sb 89(r1),r7
    32e0:	bc 05 00 00 	l.sfeqi r5,0
    32e4:	0c 00 06 91 	l.bnf 4d28 <_vfprintf_r+0x22dc>
    32e8:	d4 01 20 24 	l.sw 36(r1),r4
    32ec:	a9 ce 00 10 	l.ori r14,r14,0x10
    32f0:	a4 6e 00 10 	l.andi r3,r14,0x10
    32f4:	bc 03 00 00 	l.sfeqi r3,0
    32f8:	10 00 02 ee 	l.bf 3eb0 <_vfprintf_r+0x1464>
    32fc:	a4 6e 00 40 	l.andi r3,r14,0x40
    3300:	85 61 00 2c 	l.lwz r11,44(r1)
    3304:	87 8b 00 00 	l.lwz r28,0(r11)
    3308:	9d 6b 00 04 	l.addi r11,r11,4
    330c:	d4 01 58 2c 	l.sw 44(r1),r11
    3310:	bd 9c 00 00 	l.sfltsi r28,0
    3314:	10 00 03 84 	l.bf 4124 <_vfprintf_r+0x16d8>
    3318:	bd 82 00 00 	l.sfltsi r2,0
    331c:	13 ff ff a6 	l.bf 31b4 <_vfprintf_r+0x768>
    3320:	90 a1 00 59 	l.lbs r5,89(r1)
    3324:	e0 60 e0 02 	l.sub r3,r0,r28
    3328:	9c a0 ff 7f 	l.addi r5,r0,-129
    332c:	e0 63 e0 04 	l.or r3,r3,r28
    3330:	bd 83 00 00 	l.sfltsi r3,0
    3334:	10 00 02 a1 	l.bf 3db8 <_vfprintf_r+0x136c>
    3338:	e1 ce 28 03 	l.and r14,r14,r5
    333c:	e0 60 10 02 	l.sub r3,r0,r2
    3340:	e0 63 10 04 	l.or r3,r3,r2
    3344:	bd 83 00 00 	l.sfltsi r3,0
    3348:	10 00 02 9c 	l.bf 3db8 <_vfprintf_r+0x136c>
    334c:	15 00 00 00 	l.nop 0x0
    3350:	03 ff ff 4c 	l.j 3080 <_vfprintf_r+0x634>
    3354:	90 a1 00 59 	l.lbs r5,89(r1)
    3358:	bc 05 00 00 	l.sfeqi r5,0
    335c:	0c 00 06 75 	l.bnf 4d30 <_vfprintf_r+0x22e4>
    3360:	d4 01 20 24 	l.sw 36(r1),r4
    3364:	a4 6e 00 08 	l.andi r3,r14,0x8
    3368:	bc 03 00 00 	l.sfeqi r3,0
    336c:	10 00 03 fb 	l.bf 4358 <_vfprintf_r+0x190c>
    3370:	84 81 00 2c 	l.lwz r4,44(r1)
    3374:	85 01 00 2c 	l.lwz r8,44(r1)
    3378:	85 61 00 2c 	l.lwz r11,44(r1)
    337c:	84 61 00 2c 	l.lwz r3,44(r1)
    3380:	85 08 00 00 	l.lwz r8,0(r8)
    3384:	85 6b 00 04 	l.lwz r11,4(r11)
    3388:	9c 63 00 08 	l.addi r3,r3,8
    338c:	d4 01 40 48 	l.sw 72(r1),r8
    3390:	d4 01 58 4c 	l.sw 76(r1),r11
    3394:	d4 01 18 2c 	l.sw 44(r1),r3
    3398:	84 61 00 4c 	l.lwz r3,76(r1)
    339c:	84 c1 00 48 	l.lwz r6,72(r1)
    33a0:	a8 a3 00 00 	l.ori r5,r3,0x0
    33a4:	a8 86 00 00 	l.ori r4,r6,0x0
    33a8:	e0 64 00 04 	l.or r3,r4,r0
    33ac:	e0 85 00 04 	l.or r4,r5,r0
    33b0:	04 00 1c b0 	l.jal a670 <__fpclassifyd>
    33b4:	d4 01 60 08 	l.sw 8(r1),r12
    33b8:	bc 2b 00 01 	l.sfnei r11,1
    33bc:	10 00 03 6a 	l.bf 4164 <_vfprintf_r+0x1718>
    33c0:	85 81 00 08 	l.lwz r12,8(r1)
    33c4:	84 a1 00 48 	l.lwz r5,72(r1)
    33c8:	84 81 00 4c 	l.lwz r4,76(r1)
    33cc:	18 e0 00 01 	l.movhi r7,0x1
    33d0:	a8 45 00 00 	l.ori r2,r5,0x0
    33d4:	a8 e7 24 14 	l.ori r7,r7,0x2414
    33d8:	a8 64 00 00 	l.ori r3,r4,0x0
    33dc:	84 a7 00 00 	l.lwz r5,0(r7)
    33e0:	84 c7 00 04 	l.lwz r6,4(r7)
    33e4:	e0 83 00 04 	l.or r4,r3,r0
    33e8:	e0 62 00 04 	l.or r3,r2,r0
    33ec:	04 00 35 b2 	l.jal 10ab4 <__ledf2>
    33f0:	15 00 00 00 	l.nop 0x0
    33f4:	bd 8b 00 00 	l.sfltsi r11,0
    33f8:	10 00 05 42 	l.bf 4900 <_vfprintf_r+0x1eb4>
    33fc:	85 81 00 08 	l.lwz r12,8(r1)
    3400:	90 a1 00 59 	l.lbs r5,89(r1)
    3404:	1b 00 00 01 	l.movhi r24,0x1
    3408:	bd 54 00 47 	l.sfgtsi r20,71
    340c:	10 00 00 04 	l.bf 341c <_vfprintf_r+0x9d0>
    3410:	ab 18 23 da 	l.ori r24,r24,0x23da
    3414:	1b 00 00 01 	l.movhi r24,0x1
    3418:	ab 18 23 d6 	l.ori r24,r24,0x23d6
    341c:	9c 40 00 03 	l.addi r2,r0,3
    3420:	9c 60 ff 7f 	l.addi r3,r0,-129
    3424:	d4 01 10 20 	l.sw 32(r1),r2
    3428:	9c 40 00 00 	l.addi r2,r0,0
    342c:	84 e1 00 20 	l.lwz r7,32(r1)
    3430:	e1 ce 18 03 	l.and r14,r14,r3
    3434:	d4 01 38 28 	l.sw 40(r1),r7
    3438:	03 ff fe 6f 	l.j 2df4 <_vfprintf_r+0x3a8>
    343c:	d4 01 10 40 	l.sw 64(r1),r2
    3440:	03 ff fd fb 	l.j 2c2c <_vfprintf_r+0x1e0>
    3444:	a9 ce 00 08 	l.ori r14,r14,0x8
    3448:	bc 05 00 00 	l.sfeqi r5,0
    344c:	0c 00 06 27 	l.bnf 4ce8 <_vfprintf_r+0x229c>
    3450:	d4 01 20 24 	l.sw 36(r1),r4
    3454:	a4 6e 00 10 	l.andi r3,r14,0x10
    3458:	18 c0 00 01 	l.movhi r6,0x1
    345c:	bc 03 00 00 	l.sfeqi r3,0
    3460:	0f ff ff 68 	l.bnf 3200 <_vfprintf_r+0x7b4>
    3464:	a8 c6 23 f7 	l.ori r6,r6,0x23f7
    3468:	a4 6e 00 40 	l.andi r3,r14,0x40
    346c:	bc 03 00 00 	l.sfeqi r3,0
    3470:	10 00 03 e4 	l.bf 4400 <_vfprintf_r+0x19b4>
    3474:	84 a1 00 2c 	l.lwz r5,44(r1)
    3478:	84 65 00 00 	l.lwz r3,0(r5)
    347c:	9c a5 00 04 	l.addi r5,r5,4
    3480:	a4 63 ff ff 	l.andi r3,r3,0xffff
    3484:	03 ff ff 63 	l.j 3210 <_vfprintf_r+0x7c4>
    3488:	d4 01 28 2c 	l.sw 44(r1),r5
    348c:	bc 05 00 00 	l.sfeqi r5,0
    3490:	0c 00 06 24 	l.bnf 4d20 <_vfprintf_r+0x22d4>
    3494:	15 00 00 00 	l.nop 0x0
    3498:	a4 4e 00 10 	l.andi r2,r14,0x10
    349c:	bc 02 00 00 	l.sfeqi r2,0
    34a0:	10 00 03 cd 	l.bf 43d4 <_vfprintf_r+0x1988>
    34a4:	84 a1 00 2c 	l.lwz r5,44(r1)
    34a8:	84 c1 00 30 	l.lwz r6,48(r1)
    34ac:	84 45 00 00 	l.lwz r2,0(r5)
    34b0:	9c a5 00 04 	l.addi r5,r5,4
    34b4:	d4 02 30 00 	l.sw 0(r2),r6
    34b8:	03 ff fd a9 	l.j 2b5c <_vfprintf_r+0x110>
    34bc:	d4 01 28 2c 	l.sw 44(r1),r5
    34c0:	03 ff fd db 	l.j 2c2c <_vfprintf_r+0x1e0>
    34c4:	a9 ce 00 40 	l.ori r14,r14,0x40
    34c8:	bc 05 00 00 	l.sfeqi r5,0
    34cc:	13 ff ff 89 	l.bf 32f0 <_vfprintf_r+0x8a4>
    34d0:	d4 01 20 24 	l.sw 36(r1),r4
    34d4:	03 ff ff 87 	l.j 32f0 <_vfprintf_r+0x8a4>
    34d8:	d8 01 38 59 	l.sb 89(r1),r7
    34dc:	bc 07 00 00 	l.sfeqi r7,0
    34e0:	0f ff fd d3 	l.bnf 2c2c <_vfprintf_r+0x1e0>
    34e4:	15 00 00 00 	l.nop 0x0
    34e8:	9c a0 00 01 	l.addi r5,r0,1
    34ec:	03 ff fd d0 	l.j 2c2c <_vfprintf_r+0x1e0>
    34f0:	9c e0 00 20 	l.addi r7,r0,32
    34f4:	03 ff fd ce 	l.j 2c2c <_vfprintf_r+0x1e0>
    34f8:	a9 ce 00 01 	l.ori r14,r14,0x1
    34fc:	bc 05 00 00 	l.sfeqi r5,0
    3500:	0c 00 05 f8 	l.bnf 4ce0 <_vfprintf_r+0x2294>
    3504:	d4 01 20 24 	l.sw 36(r1),r4
    3508:	bc 14 00 00 	l.sfeqi r20,0
    350c:	13 ff fd fd 	l.bf 2d00 <_vfprintf_r+0x2b4>
    3510:	9d 00 00 01 	l.addi r8,r0,1
    3514:	9d 60 00 00 	l.addi r11,r0,0
    3518:	d4 01 40 20 	l.sw 32(r1),r8
    351c:	d8 01 a0 80 	l.sb 128(r1),r20
    3520:	d8 01 58 59 	l.sb 89(r1),r11
    3524:	d4 01 40 28 	l.sw 40(r1),r8
    3528:	03 ff ff 65 	l.j 32bc <_vfprintf_r+0x870>
    352c:	9f 01 00 80 	l.addi r24,r1,128
    3530:	a4 6e 00 40 	l.andi r3,r14,0x40
    3534:	bc 03 00 00 	l.sfeqi r3,0
    3538:	10 00 03 91 	l.bf 437c <_vfprintf_r+0x1930>
    353c:	bd 62 00 00 	l.sfgesi r2,0
    3540:	85 01 00 2c 	l.lwz r8,44(r1)
    3544:	d8 01 20 59 	l.sb 89(r1),r4
    3548:	84 68 00 00 	l.lwz r3,0(r8)
    354c:	bd 82 00 00 	l.sfltsi r2,0
    3550:	9c c8 00 04 	l.addi r6,r8,4
    3554:	10 00 00 0b 	l.bf 3580 <_vfprintf_r+0xb34>
    3558:	a4 63 ff ff 	l.andi r3,r3,0xffff
    355c:	e0 80 10 02 	l.sub r4,r0,r2
    3560:	9d 60 ff 7f 	l.addi r11,r0,-129
    3564:	e0 84 10 04 	l.or r4,r4,r2
    3568:	bd 84 00 00 	l.sfltsi r4,0
    356c:	10 00 00 05 	l.bf 3580 <_vfprintf_r+0xb34>
    3570:	e1 ce 58 03 	l.and r14,r14,r11
    3574:	bc 23 00 00 	l.sfnei r3,0
    3578:	0f ff fe e7 	l.bnf 3114 <_vfprintf_r+0x6c8>
    357c:	15 00 00 00 	l.nop 0x0
    3580:	9c a1 00 a8 	l.addi r5,r1,168
    3584:	a4 83 00 07 	l.andi r4,r3,0x7
    3588:	b8 63 00 43 	l.srli r3,r3,0x3
    358c:	9c 84 00 30 	l.addi r4,r4,48
    3590:	9c a5 ff ff 	l.addi r5,r5,-1
    3594:	bc 23 00 00 	l.sfnei r3,0
    3598:	13 ff ff fb 	l.bf 3584 <_vfprintf_r+0xb38>
    359c:	d8 05 20 00 	l.sb 0(r5),r4
    35a0:	ac 84 00 30 	l.xori r4,r4,48
    35a4:	a4 84 00 ff 	l.andi r4,r4,0xff
    35a8:	bc 04 00 00 	l.sfeqi r4,0
    35ac:	10 00 04 02 	l.bf 45b4 <_vfprintf_r+0x1b68>
    35b0:	a4 8e 00 01 	l.andi r4,r14,0x1
    35b4:	bc 24 00 00 	l.sfnei r4,0
    35b8:	0c 00 03 ff 	l.bnf 45b4 <_vfprintf_r+0x1b68>
    35bc:	84 e1 00 1c 	l.lwz r7,28(r1)
    35c0:	9f 05 ff ff 	l.addi r24,r5,-1
    35c4:	9d 00 00 30 	l.addi r8,r0,48
    35c8:	e0 e7 c0 02 	l.sub r7,r7,r24
    35cc:	db e5 47 ff 	l.sb -1(r5),r8
    35d0:	d4 01 38 28 	l.sw 40(r1),r7
    35d4:	d4 01 30 2c 	l.sw 44(r1),r6
    35d8:	03 ff fe ad 	l.j 308c <_vfprintf_r+0x640>
    35dc:	a8 a3 00 00 	l.ori r5,r3,0x0
    35e0:	84 e1 00 7c 	l.lwz r7,124(r1)
    35e4:	bc 05 00 00 	l.sfeqi r5,0
    35e8:	10 00 00 0f 	l.bf 3624 <_vfprintf_r+0xbd8>
    35ec:	84 c1 00 34 	l.lwz r6,52(r1)
    35f0:	84 61 00 78 	l.lwz r3,120(r1)
    35f4:	9c e7 00 01 	l.addi r7,r7,1
    35f8:	9c 63 00 01 	l.addi r3,r3,1
    35fc:	9d 01 00 59 	l.addi r8,r1,89
    3600:	9c 80 00 01 	l.addi r4,r0,1
    3604:	d4 0c 40 00 	l.sw 0(r12),r8
    3608:	d4 0c 20 04 	l.sw 4(r12),r4
    360c:	d4 01 38 7c 	l.sw 124(r1),r7
    3610:	bd 43 00 07 	l.sfgtsi r3,7
    3614:	10 00 01 95 	l.bf 3c68 <_vfprintf_r+0x121c>
    3618:	d4 01 18 78 	l.sw 120(r1),r3
    361c:	9d 8c 00 08 	l.addi r12,r12,8
    3620:	84 c1 00 34 	l.lwz r6,52(r1)
    3624:	bc 06 00 00 	l.sfeqi r6,0
    3628:	10 00 00 0f 	l.bf 3664 <_vfprintf_r+0xc18>
    362c:	84 c1 00 38 	l.lwz r6,56(r1)
    3630:	84 61 00 78 	l.lwz r3,120(r1)
    3634:	9c e7 00 02 	l.addi r7,r7,2
    3638:	9c 63 00 01 	l.addi r3,r3,1
    363c:	9d 01 00 5a 	l.addi r8,r1,90
    3640:	9c 80 00 02 	l.addi r4,r0,2
    3644:	d4 0c 40 00 	l.sw 0(r12),r8
    3648:	d4 0c 20 04 	l.sw 4(r12),r4
    364c:	d4 01 38 7c 	l.sw 124(r1),r7
    3650:	bd 43 00 07 	l.sfgtsi r3,7
    3654:	10 00 01 8e 	l.bf 3c8c <_vfprintf_r+0x1240>
    3658:	d4 01 18 78 	l.sw 120(r1),r3
    365c:	9d 8c 00 08 	l.addi r12,r12,8
    3660:	84 c1 00 38 	l.lwz r6,56(r1)
    3664:	bc 26 00 80 	l.sfnei r6,128
    3668:	0c 00 00 e9 	l.bnf 3a0c <_vfprintf_r+0xfc0>
    366c:	85 01 00 24 	l.lwz r8,36(r1)
    3670:	84 c1 00 28 	l.lwz r6,40(r1)
    3674:	e0 42 30 02 	l.sub r2,r2,r6
    3678:	bd a2 00 00 	l.sflesi r2,0
    367c:	10 00 00 29 	l.bf 3720 <_vfprintf_r+0xcd4>
    3680:	1b 80 00 01 	l.movhi r28,0x1
    3684:	bd 42 00 10 	l.sfgtsi r2,16
    3688:	84 61 00 78 	l.lwz r3,120(r1)
    368c:	0c 00 00 1c 	l.bnf 36fc <_vfprintf_r+0xcb0>
    3690:	ab 9c 25 80 	l.ori r28,r28,0x2580
    3694:	00 00 00 06 	l.j 36ac <_vfprintf_r+0xc60>
    3698:	9f c0 00 10 	l.addi r30,r0,16
    369c:	9c 42 ff f0 	l.addi r2,r2,-16
    36a0:	bd 42 00 10 	l.sfgtsi r2,16
    36a4:	0c 00 00 16 	l.bnf 36fc <_vfprintf_r+0xcb0>
    36a8:	9d 8c 00 08 	l.addi r12,r12,8
    36ac:	9c 63 00 01 	l.addi r3,r3,1
    36b0:	9c e7 00 10 	l.addi r7,r7,16
    36b4:	d4 0c e0 00 	l.sw 0(r12),r28
    36b8:	d4 0c f0 04 	l.sw 4(r12),r30
    36bc:	d4 01 38 7c 	l.sw 124(r1),r7
    36c0:	bd 43 00 07 	l.sfgtsi r3,7
    36c4:	0f ff ff f6 	l.bnf 369c <_vfprintf_r+0xc50>
    36c8:	d4 01 18 78 	l.sw 120(r1),r3
    36cc:	9c a1 00 74 	l.addi r5,r1,116
    36d0:	a8 9a 00 00 	l.ori r4,r26,0x0
    36d4:	04 00 1d 49 	l.jal abf8 <__sprint_r>
    36d8:	a8 76 00 00 	l.ori r3,r22,0x0
    36dc:	bc 2b 00 00 	l.sfnei r11,0
    36e0:	13 ff fd 8f 	l.bf 2d1c <_vfprintf_r+0x2d0>
    36e4:	9c 42 ff f0 	l.addi r2,r2,-16
    36e8:	84 e1 00 7c 	l.lwz r7,124(r1)
    36ec:	bd 42 00 10 	l.sfgtsi r2,16
    36f0:	84 61 00 78 	l.lwz r3,120(r1)
    36f4:	13 ff ff ee 	l.bf 36ac <_vfprintf_r+0xc60>
    36f8:	9d 81 00 a8 	l.addi r12,r1,168
    36fc:	9c 63 00 01 	l.addi r3,r3,1
    3700:	e0 e7 10 00 	l.add r7,r7,r2
    3704:	d4 0c e0 00 	l.sw 0(r12),r28
    3708:	d4 0c 10 04 	l.sw 4(r12),r2
    370c:	d4 01 38 7c 	l.sw 124(r1),r7
    3710:	bd 43 00 07 	l.sfgtsi r3,7
    3714:	10 00 01 4c 	l.bf 3c44 <_vfprintf_r+0x11f8>
    3718:	d4 01 18 78 	l.sw 120(r1),r3
    371c:	9d 8c 00 08 	l.addi r12,r12,8
    3720:	a4 4e 01 00 	l.andi r2,r14,0x100
    3724:	bc 22 00 00 	l.sfnei r2,0
    3728:	10 00 00 62 	l.bf 38b0 <_vfprintf_r+0xe64>
    372c:	bd b4 00 65 	l.sflesi r20,101
    3730:	85 01 00 28 	l.lwz r8,40(r1)
    3734:	84 41 00 78 	l.lwz r2,120(r1)
    3738:	e0 e7 40 00 	l.add r7,r7,r8
    373c:	9c 42 00 01 	l.addi r2,r2,1
    3740:	d4 0c c0 00 	l.sw 0(r12),r24
    3744:	d4 0c 40 04 	l.sw 4(r12),r8
    3748:	d4 01 38 7c 	l.sw 124(r1),r7
    374c:	bd 42 00 07 	l.sfgtsi r2,7
    3750:	10 00 00 4f 	l.bf 388c <_vfprintf_r+0xe40>
    3754:	d4 01 10 78 	l.sw 120(r1),r2
    3758:	9d 8c 00 08 	l.addi r12,r12,8
    375c:	a5 ce 00 04 	l.andi r14,r14,0x4
    3760:	bc 0e 00 00 	l.sfeqi r14,0
    3764:	10 00 00 35 	l.bf 3838 <_vfprintf_r+0xdec>
    3768:	84 41 00 24 	l.lwz r2,36(r1)
    376c:	85 01 00 20 	l.lwz r8,32(r1)
    3770:	e1 c2 40 02 	l.sub r14,r2,r8
    3774:	bd ae 00 00 	l.sflesi r14,0
    3778:	10 00 00 30 	l.bf 3838 <_vfprintf_r+0xdec>
    377c:	1b 80 00 01 	l.movhi r28,0x1
    3780:	bd 4e 00 10 	l.sfgtsi r14,16
    3784:	84 41 00 78 	l.lwz r2,120(r1)
    3788:	0c 00 00 1c 	l.bnf 37f8 <_vfprintf_r+0xdac>
    378c:	ab 9c 25 90 	l.ori r28,r28,0x2590
    3790:	00 00 00 06 	l.j 37a8 <_vfprintf_r+0xd5c>
    3794:	9e 80 00 10 	l.addi r20,r0,16
    3798:	9d ce ff f0 	l.addi r14,r14,-16
    379c:	bd 4e 00 10 	l.sfgtsi r14,16
    37a0:	0c 00 00 16 	l.bnf 37f8 <_vfprintf_r+0xdac>
    37a4:	9d 8c 00 08 	l.addi r12,r12,8
    37a8:	9c 42 00 01 	l.addi r2,r2,1
    37ac:	9c e7 00 10 	l.addi r7,r7,16
    37b0:	d4 0c e0 00 	l.sw 0(r12),r28
    37b4:	d4 0c a0 04 	l.sw 4(r12),r20
    37b8:	d4 01 38 7c 	l.sw 124(r1),r7
    37bc:	bd 42 00 07 	l.sfgtsi r2,7
    37c0:	0f ff ff f6 	l.bnf 3798 <_vfprintf_r+0xd4c>
    37c4:	d4 01 10 78 	l.sw 120(r1),r2
    37c8:	9c a1 00 74 	l.addi r5,r1,116
    37cc:	a8 9a 00 00 	l.ori r4,r26,0x0
    37d0:	04 00 1d 0a 	l.jal abf8 <__sprint_r>
    37d4:	a8 76 00 00 	l.ori r3,r22,0x0
    37d8:	bc 2b 00 00 	l.sfnei r11,0
    37dc:	13 ff fd 50 	l.bf 2d1c <_vfprintf_r+0x2d0>
    37e0:	9d ce ff f0 	l.addi r14,r14,-16
    37e4:	84 e1 00 7c 	l.lwz r7,124(r1)
    37e8:	bd 4e 00 10 	l.sfgtsi r14,16
    37ec:	84 41 00 78 	l.lwz r2,120(r1)
    37f0:	13 ff ff ee 	l.bf 37a8 <_vfprintf_r+0xd5c>
    37f4:	9d 81 00 a8 	l.addi r12,r1,168
    37f8:	9c 42 00 01 	l.addi r2,r2,1
    37fc:	e0 e7 70 00 	l.add r7,r7,r14
    3800:	d4 0c e0 00 	l.sw 0(r12),r28
    3804:	d4 0c 70 04 	l.sw 4(r12),r14
    3808:	d4 01 38 7c 	l.sw 124(r1),r7
    380c:	bd a2 00 07 	l.sflesi r2,7
    3810:	10 00 00 09 	l.bf 3834 <_vfprintf_r+0xde8>
    3814:	d4 01 10 78 	l.sw 120(r1),r2
    3818:	9c a1 00 74 	l.addi r5,r1,116
    381c:	a8 9a 00 00 	l.ori r4,r26,0x0
    3820:	04 00 1c f6 	l.jal abf8 <__sprint_r>
    3824:	a8 76 00 00 	l.ori r3,r22,0x0
    3828:	bc 2b 00 00 	l.sfnei r11,0
    382c:	13 ff fd 3c 	l.bf 2d1c <_vfprintf_r+0x2d0>
    3830:	84 e1 00 7c 	l.lwz r7,124(r1)
    3834:	84 41 00 24 	l.lwz r2,36(r1)
    3838:	85 01 00 20 	l.lwz r8,32(r1)
    383c:	e5 62 40 00 	l.sfges r2,r8
    3840:	10 00 00 03 	l.bf 384c <_vfprintf_r+0xe00>
    3844:	85 61 00 30 	l.lwz r11,48(r1)
    3848:	a8 48 00 00 	l.ori r2,r8,0x0
    384c:	bc 27 00 00 	l.sfnei r7,0
    3850:	e1 6b 10 00 	l.add r11,r11,r2
    3854:	10 00 00 f3 	l.bf 3c20 <_vfprintf_r+0x11d4>
    3858:	d4 01 58 30 	l.sw 48(r1),r11
    385c:	9c 40 00 00 	l.addi r2,r0,0
    3860:	9d 81 00 a8 	l.addi r12,r1,168
    3864:	03 ff fc be 	l.j 2b5c <_vfprintf_r+0x110>
    3868:	d4 01 10 78 	l.sw 120(r1),r2
    386c:	9c 42 00 01 	l.addi r2,r2,1
    3870:	e0 e7 a0 00 	l.add r7,r7,r20
    3874:	d4 0c e0 00 	l.sw 0(r12),r28
    3878:	d4 0c a0 04 	l.sw 4(r12),r20
    387c:	d4 01 38 7c 	l.sw 124(r1),r7
    3880:	bd 42 00 07 	l.sfgtsi r2,7
    3884:	0f ff ff b5 	l.bnf 3758 <_vfprintf_r+0xd0c>
    3888:	d4 01 10 78 	l.sw 120(r1),r2
    388c:	9c a1 00 74 	l.addi r5,r1,116
    3890:	a8 9a 00 00 	l.ori r4,r26,0x0
    3894:	04 00 1c d9 	l.jal abf8 <__sprint_r>
    3898:	a8 76 00 00 	l.ori r3,r22,0x0
    389c:	bc 2b 00 00 	l.sfnei r11,0
    38a0:	13 ff fd 1f 	l.bf 2d1c <_vfprintf_r+0x2d0>
    38a4:	84 e1 00 7c 	l.lwz r7,124(r1)
    38a8:	03 ff ff ad 	l.j 375c <_vfprintf_r+0xd10>
    38ac:	9d 81 00 a8 	l.addi r12,r1,168
    38b0:	10 00 00 86 	l.bf 3ac8 <_vfprintf_r+0x107c>
    38b4:	84 41 00 3c 	l.lwz r2,60(r1)
    38b8:	84 a1 00 48 	l.lwz r5,72(r1)
    38bc:	84 81 00 4c 	l.lwz r4,76(r1)
    38c0:	19 60 00 01 	l.movhi r11,0x1
    38c4:	a8 45 00 00 	l.ori r2,r5,0x0
    38c8:	a9 6b 24 14 	l.ori r11,r11,0x2414
    38cc:	a8 64 00 00 	l.ori r3,r4,0x0
    38d0:	d4 01 38 0c 	l.sw 12(r1),r7
    38d4:	84 ab 00 00 	l.lwz r5,0(r11)
    38d8:	84 cb 00 04 	l.lwz r6,4(r11)
    38dc:	e0 83 00 04 	l.or r4,r3,r0
    38e0:	e0 62 00 04 	l.or r3,r2,r0
    38e4:	04 00 33 be 	l.jal 107dc <__eqdf2>
    38e8:	d4 01 60 08 	l.sw 8(r1),r12
    38ec:	bc 0b 00 00 	l.sfeqi r11,0
    38f0:	84 e1 00 0c 	l.lwz r7,12(r1)
    38f4:	0c 00 00 ef 	l.bnf 3cb0 <_vfprintf_r+0x1264>
    38f8:	85 81 00 08 	l.lwz r12,8(r1)
    38fc:	18 60 00 01 	l.movhi r3,0x1
    3900:	84 41 00 78 	l.lwz r2,120(r1)
    3904:	a8 63 24 0f 	l.ori r3,r3,0x240f
    3908:	9c 42 00 01 	l.addi r2,r2,1
    390c:	9c e7 00 01 	l.addi r7,r7,1
    3910:	d4 0c 18 00 	l.sw 0(r12),r3
    3914:	9c 60 00 01 	l.addi r3,r0,1
    3918:	d4 01 38 7c 	l.sw 124(r1),r7
    391c:	d4 0c 18 04 	l.sw 4(r12),r3
    3920:	bd 42 00 07 	l.sfgtsi r2,7
    3924:	10 00 02 d9 	l.bf 4488 <_vfprintf_r+0x1a3c>
    3928:	d4 01 10 78 	l.sw 120(r1),r2
    392c:	9d 8c 00 08 	l.addi r12,r12,8
    3930:	84 41 00 5c 	l.lwz r2,92(r1)
    3934:	85 01 00 3c 	l.lwz r8,60(r1)
    3938:	e5 48 10 00 	l.sfgts r8,r2
    393c:	10 00 00 06 	l.bf 3954 <_vfprintf_r+0xf08>
    3940:	84 41 00 50 	l.lwz r2,80(r1)
    3944:	a4 4e 00 01 	l.andi r2,r14,0x1
    3948:	bc 02 00 00 	l.sfeqi r2,0
    394c:	13 ff ff 84 	l.bf 375c <_vfprintf_r+0xd10>
    3950:	84 41 00 50 	l.lwz r2,80(r1)
    3954:	84 61 00 44 	l.lwz r3,68(r1)
    3958:	e0 e7 10 00 	l.add r7,r7,r2
    395c:	84 41 00 78 	l.lwz r2,120(r1)
    3960:	84 81 00 50 	l.lwz r4,80(r1)
    3964:	9c 42 00 01 	l.addi r2,r2,1
    3968:	d4 0c 18 00 	l.sw 0(r12),r3
    396c:	d4 0c 20 04 	l.sw 4(r12),r4
    3970:	d4 01 38 7c 	l.sw 124(r1),r7
    3974:	bd 42 00 07 	l.sfgtsi r2,7
    3978:	10 00 03 42 	l.bf 4680 <_vfprintf_r+0x1c34>
    397c:	d4 01 10 78 	l.sw 120(r1),r2
    3980:	9d 8c 00 08 	l.addi r12,r12,8
    3984:	85 01 00 3c 	l.lwz r8,60(r1)
    3988:	9e 88 ff ff 	l.addi r20,r8,-1
    398c:	bd b4 00 00 	l.sflesi r20,0
    3990:	13 ff ff 73 	l.bf 375c <_vfprintf_r+0xd10>
    3994:	1b 80 00 01 	l.movhi r28,0x1
    3998:	bd 54 00 10 	l.sfgtsi r20,16
    399c:	84 41 00 78 	l.lwz r2,120(r1)
    39a0:	0f ff ff b3 	l.bnf 386c <_vfprintf_r+0xe20>
    39a4:	ab 9c 25 80 	l.ori r28,r28,0x2580
    39a8:	00 00 00 07 	l.j 39c4 <_vfprintf_r+0xf78>
    39ac:	9f 00 00 10 	l.addi r24,r0,16
    39b0:	9d 8c 00 08 	l.addi r12,r12,8
    39b4:	9e 94 ff f0 	l.addi r20,r20,-16
    39b8:	bd 54 00 10 	l.sfgtsi r20,16
    39bc:	0f ff ff ac 	l.bnf 386c <_vfprintf_r+0xe20>
    39c0:	15 00 00 00 	l.nop 0x0
    39c4:	9c 42 00 01 	l.addi r2,r2,1
    39c8:	9c e7 00 10 	l.addi r7,r7,16
    39cc:	d4 0c e0 00 	l.sw 0(r12),r28
    39d0:	d4 0c c0 04 	l.sw 4(r12),r24
    39d4:	d4 01 38 7c 	l.sw 124(r1),r7
    39d8:	bd 42 00 07 	l.sfgtsi r2,7
    39dc:	0f ff ff f5 	l.bnf 39b0 <_vfprintf_r+0xf64>
    39e0:	d4 01 10 78 	l.sw 120(r1),r2
    39e4:	9c a1 00 74 	l.addi r5,r1,116
    39e8:	a8 9a 00 00 	l.ori r4,r26,0x0
    39ec:	04 00 1c 83 	l.jal abf8 <__sprint_r>
    39f0:	a8 76 00 00 	l.ori r3,r22,0x0
    39f4:	bc 2b 00 00 	l.sfnei r11,0
    39f8:	13 ff fc c9 	l.bf 2d1c <_vfprintf_r+0x2d0>
    39fc:	84 e1 00 7c 	l.lwz r7,124(r1)
    3a00:	84 41 00 78 	l.lwz r2,120(r1)
    3a04:	03 ff ff ec 	l.j 39b4 <_vfprintf_r+0xf68>
    3a08:	9d 81 00 a8 	l.addi r12,r1,168
    3a0c:	85 61 00 20 	l.lwz r11,32(r1)
    3a10:	e3 c8 58 02 	l.sub r30,r8,r11
    3a14:	bd be 00 00 	l.sflesi r30,0
    3a18:	13 ff ff 16 	l.bf 3670 <_vfprintf_r+0xc24>
    3a1c:	1b 80 00 01 	l.movhi r28,0x1
    3a20:	bd 5e 00 10 	l.sfgtsi r30,16
    3a24:	84 61 00 78 	l.lwz r3,120(r1)
    3a28:	0c 00 00 1e 	l.bnf 3aa0 <_vfprintf_r+0x1054>
    3a2c:	ab 9c 25 80 	l.ori r28,r28,0x2580
    3a30:	00 00 00 06 	l.j 3a48 <_vfprintf_r+0xffc>
    3a34:	9c c0 00 10 	l.addi r6,r0,16
    3a38:	9f de ff f0 	l.addi r30,r30,-16
    3a3c:	bd 5e 00 10 	l.sfgtsi r30,16
    3a40:	0c 00 00 18 	l.bnf 3aa0 <_vfprintf_r+0x1054>
    3a44:	9d 8c 00 08 	l.addi r12,r12,8
    3a48:	9c 63 00 01 	l.addi r3,r3,1
    3a4c:	9c e7 00 10 	l.addi r7,r7,16
    3a50:	d4 0c e0 00 	l.sw 0(r12),r28
    3a54:	d4 0c 30 04 	l.sw 4(r12),r6
    3a58:	d4 01 38 7c 	l.sw 124(r1),r7
    3a5c:	bd 43 00 07 	l.sfgtsi r3,7
    3a60:	0f ff ff f6 	l.bnf 3a38 <_vfprintf_r+0xfec>
    3a64:	d4 01 18 78 	l.sw 120(r1),r3
    3a68:	9c a1 00 74 	l.addi r5,r1,116
    3a6c:	a8 9a 00 00 	l.ori r4,r26,0x0
    3a70:	a8 76 00 00 	l.ori r3,r22,0x0
    3a74:	04 00 1c 61 	l.jal abf8 <__sprint_r>
    3a78:	d4 01 30 0c 	l.sw 12(r1),r6
    3a7c:	bc 2b 00 00 	l.sfnei r11,0
    3a80:	13 ff fc a7 	l.bf 2d1c <_vfprintf_r+0x2d0>
    3a84:	84 c1 00 0c 	l.lwz r6,12(r1)
    3a88:	9f de ff f0 	l.addi r30,r30,-16
    3a8c:	84 e1 00 7c 	l.lwz r7,124(r1)
    3a90:	bd 5e 00 10 	l.sfgtsi r30,16
    3a94:	84 61 00 78 	l.lwz r3,120(r1)
    3a98:	13 ff ff ec 	l.bf 3a48 <_vfprintf_r+0xffc>
    3a9c:	9d 81 00 a8 	l.addi r12,r1,168
    3aa0:	9c 63 00 01 	l.addi r3,r3,1
    3aa4:	e0 e7 f0 00 	l.add r7,r7,r30
    3aa8:	d4 0c e0 00 	l.sw 0(r12),r28
    3aac:	d4 0c f0 04 	l.sw 4(r12),r30
    3ab0:	d4 01 38 7c 	l.sw 124(r1),r7
    3ab4:	bd 43 00 07 	l.sfgtsi r3,7
    3ab8:	10 00 01 92 	l.bf 4100 <_vfprintf_r+0x16b4>
    3abc:	d4 01 18 78 	l.sw 120(r1),r3
    3ac0:	03 ff fe ec 	l.j 3670 <_vfprintf_r+0xc24>
    3ac4:	9d 8c 00 08 	l.addi r12,r12,8
    3ac8:	bd 42 00 01 	l.sfgtsi r2,1
    3acc:	0c 00 00 3f 	l.bnf 3bc8 <_vfprintf_r+0x117c>
    3ad0:	a4 4e 00 01 	l.andi r2,r14,0x1
    3ad4:	84 41 00 78 	l.lwz r2,120(r1)
    3ad8:	9c e7 00 01 	l.addi r7,r7,1
    3adc:	9c 42 00 01 	l.addi r2,r2,1
    3ae0:	9c 60 00 01 	l.addi r3,r0,1
    3ae4:	d4 0c c0 00 	l.sw 0(r12),r24
    3ae8:	d4 0c 18 04 	l.sw 4(r12),r3
    3aec:	d4 01 38 7c 	l.sw 124(r1),r7
    3af0:	bd 42 00 07 	l.sfgtsi r2,7
    3af4:	10 00 01 4e 	l.bf 402c <_vfprintf_r+0x15e0>
    3af8:	d4 01 10 78 	l.sw 120(r1),r2
    3afc:	9d 8c 00 08 	l.addi r12,r12,8
    3b00:	84 61 00 50 	l.lwz r3,80(r1)
    3b04:	9c 42 00 01 	l.addi r2,r2,1
    3b08:	e3 c3 38 00 	l.add r30,r3,r7
    3b0c:	84 81 00 44 	l.lwz r4,68(r1)
    3b10:	d4 0c 18 04 	l.sw 4(r12),r3
    3b14:	d4 0c 20 00 	l.sw 0(r12),r4
    3b18:	d4 01 f0 7c 	l.sw 124(r1),r30
    3b1c:	bd 42 00 07 	l.sfgtsi r2,7
    3b20:	10 00 01 57 	l.bf 407c <_vfprintf_r+0x1630>
    3b24:	d4 01 10 78 	l.sw 120(r1),r2
    3b28:	9e 8c 00 08 	l.addi r20,r12,8
    3b2c:	84 81 00 48 	l.lwz r4,72(r1)
    3b30:	84 61 00 4c 	l.lwz r3,76(r1)
    3b34:	18 e0 00 01 	l.movhi r7,0x1
    3b38:	a9 84 00 00 	l.ori r12,r4,0x0
    3b3c:	a8 e7 24 14 	l.ori r7,r7,0x2414
    3b40:	a9 a3 00 00 	l.ori r13,r3,0x0
    3b44:	84 a7 00 00 	l.lwz r5,0(r7)
    3b48:	84 c7 00 04 	l.lwz r6,4(r7)
    3b4c:	e0 6c 00 04 	l.or r3,r12,r0
    3b50:	e0 8d 00 04 	l.or r4,r13,r0
    3b54:	04 00 33 22 	l.jal 107dc <__eqdf2>
    3b58:	15 00 00 00 	l.nop 0x0
    3b5c:	bc 2b 00 00 	l.sfnei r11,0
    3b60:	0c 00 00 a2 	l.bnf 3de8 <_vfprintf_r+0x139c>
    3b64:	84 e1 00 3c 	l.lwz r7,60(r1)
    3b68:	85 01 00 3c 	l.lwz r8,60(r1)
    3b6c:	9c 42 00 01 	l.addi r2,r2,1
    3b70:	9c 68 ff ff 	l.addi r3,r8,-1
    3b74:	9f 18 00 01 	l.addi r24,r24,1
    3b78:	e3 de 18 00 	l.add r30,r30,r3
    3b7c:	d4 14 c0 00 	l.sw 0(r20),r24
    3b80:	d4 14 18 04 	l.sw 4(r20),r3
    3b84:	d4 01 f0 7c 	l.sw 124(r1),r30
    3b88:	bd 42 00 07 	l.sfgtsi r2,7
    3b8c:	10 00 00 1b 	l.bf 3bf8 <_vfprintf_r+0x11ac>
    3b90:	d4 01 10 78 	l.sw 120(r1),r2
    3b94:	9e 94 00 08 	l.addi r20,r20,8
    3b98:	85 01 00 54 	l.lwz r8,84(r1)
    3b9c:	9c 42 00 01 	l.addi r2,r2,1
    3ba0:	e0 e8 f0 00 	l.add r7,r8,r30
    3ba4:	9d 61 00 64 	l.addi r11,r1,100
    3ba8:	d4 14 40 04 	l.sw 4(r20),r8
    3bac:	d4 14 58 00 	l.sw 0(r20),r11
    3bb0:	d4 01 38 7c 	l.sw 124(r1),r7
    3bb4:	bd 42 00 07 	l.sfgtsi r2,7
    3bb8:	13 ff ff 35 	l.bf 388c <_vfprintf_r+0xe40>
    3bbc:	d4 01 10 78 	l.sw 120(r1),r2
    3bc0:	03 ff fe e7 	l.j 375c <_vfprintf_r+0xd10>
    3bc4:	9d 94 00 08 	l.addi r12,r20,8
    3bc8:	bc 02 00 00 	l.sfeqi r2,0
    3bcc:	0f ff ff c3 	l.bnf 3ad8 <_vfprintf_r+0x108c>
    3bd0:	84 41 00 78 	l.lwz r2,120(r1)
    3bd4:	9f c7 00 01 	l.addi r30,r7,1
    3bd8:	9c 42 00 01 	l.addi r2,r2,1
    3bdc:	9c 60 00 01 	l.addi r3,r0,1
    3be0:	d4 0c c0 00 	l.sw 0(r12),r24
    3be4:	d4 0c 18 04 	l.sw 4(r12),r3
    3be8:	d4 01 f0 7c 	l.sw 124(r1),r30
    3bec:	bd 42 00 07 	l.sfgtsi r2,7
    3bf0:	0c 00 02 8f 	l.bnf 462c <_vfprintf_r+0x1be0>
    3bf4:	d4 01 10 78 	l.sw 120(r1),r2
    3bf8:	9c a1 00 74 	l.addi r5,r1,116
    3bfc:	a8 9a 00 00 	l.ori r4,r26,0x0
    3c00:	04 00 1b fe 	l.jal abf8 <__sprint_r>
    3c04:	a8 76 00 00 	l.ori r3,r22,0x0
    3c08:	bc 2b 00 00 	l.sfnei r11,0
    3c0c:	13 ff fc 44 	l.bf 2d1c <_vfprintf_r+0x2d0>
    3c10:	87 c1 00 7c 	l.lwz r30,124(r1)
    3c14:	84 41 00 78 	l.lwz r2,120(r1)
    3c18:	03 ff ff e0 	l.j 3b98 <_vfprintf_r+0x114c>
    3c1c:	9e 81 00 a8 	l.addi r20,r1,168
    3c20:	9c a1 00 74 	l.addi r5,r1,116
    3c24:	a8 9a 00 00 	l.ori r4,r26,0x0
    3c28:	04 00 1b f4 	l.jal abf8 <__sprint_r>
    3c2c:	a8 76 00 00 	l.ori r3,r22,0x0
    3c30:	bc 2b 00 00 	l.sfnei r11,0
    3c34:	0f ff ff 0a 	l.bnf 385c <_vfprintf_r+0xe10>
    3c38:	15 00 00 00 	l.nop 0x0
    3c3c:	03 ff fc 39 	l.j 2d20 <_vfprintf_r+0x2d4>
    3c40:	94 5a 00 0c 	l.lhz r2,12(r26)
    3c44:	9c a1 00 74 	l.addi r5,r1,116
    3c48:	a8 9a 00 00 	l.ori r4,r26,0x0
    3c4c:	04 00 1b eb 	l.jal abf8 <__sprint_r>
    3c50:	a8 76 00 00 	l.ori r3,r22,0x0
    3c54:	bc 2b 00 00 	l.sfnei r11,0
    3c58:	13 ff fc 31 	l.bf 2d1c <_vfprintf_r+0x2d0>
    3c5c:	84 e1 00 7c 	l.lwz r7,124(r1)
    3c60:	03 ff fe b0 	l.j 3720 <_vfprintf_r+0xcd4>
    3c64:	9d 81 00 a8 	l.addi r12,r1,168
    3c68:	9c a1 00 74 	l.addi r5,r1,116
    3c6c:	a8 9a 00 00 	l.ori r4,r26,0x0
    3c70:	04 00 1b e2 	l.jal abf8 <__sprint_r>
    3c74:	a8 76 00 00 	l.ori r3,r22,0x0
    3c78:	bc 2b 00 00 	l.sfnei r11,0
    3c7c:	13 ff fc 28 	l.bf 2d1c <_vfprintf_r+0x2d0>
    3c80:	84 e1 00 7c 	l.lwz r7,124(r1)
    3c84:	03 ff fe 67 	l.j 3620 <_vfprintf_r+0xbd4>
    3c88:	9d 81 00 a8 	l.addi r12,r1,168
    3c8c:	9c a1 00 74 	l.addi r5,r1,116
    3c90:	a8 9a 00 00 	l.ori r4,r26,0x0
    3c94:	04 00 1b d9 	l.jal abf8 <__sprint_r>
    3c98:	a8 76 00 00 	l.ori r3,r22,0x0
    3c9c:	bc 2b 00 00 	l.sfnei r11,0
    3ca0:	13 ff fc 1f 	l.bf 2d1c <_vfprintf_r+0x2d0>
    3ca4:	84 e1 00 7c 	l.lwz r7,124(r1)
    3ca8:	03 ff fe 6e 	l.j 3660 <_vfprintf_r+0xc14>
    3cac:	9d 81 00 a8 	l.addi r12,r1,168
    3cb0:	86 81 00 5c 	l.lwz r20,92(r1)
    3cb4:	bd 54 00 00 	l.sfgtsi r20,0
    3cb8:	0c 00 01 fd 	l.bnf 44ac <_vfprintf_r+0x1a60>
    3cbc:	84 41 00 40 	l.lwz r2,64(r1)
    3cc0:	85 01 00 3c 	l.lwz r8,60(r1)
    3cc4:	e5 a2 40 00 	l.sfles r2,r8
    3cc8:	10 00 00 03 	l.bf 3cd4 <_vfprintf_r+0x1288>
    3ccc:	aa 82 00 00 	l.ori r20,r2,0x0
    3cd0:	aa 88 00 00 	l.ori r20,r8,0x0
    3cd4:	bd b4 00 00 	l.sflesi r20,0
    3cd8:	10 00 00 0b 	l.bf 3d04 <_vfprintf_r+0x12b8>
    3cdc:	84 41 00 78 	l.lwz r2,120(r1)
    3ce0:	e0 e7 a0 00 	l.add r7,r7,r20
    3ce4:	9c 42 00 01 	l.addi r2,r2,1
    3ce8:	d4 0c c0 00 	l.sw 0(r12),r24
    3cec:	d4 0c a0 04 	l.sw 4(r12),r20
    3cf0:	d4 01 38 7c 	l.sw 124(r1),r7
    3cf4:	bd 42 00 07 	l.sfgtsi r2,7
    3cf8:	10 00 02 82 	l.bf 4700 <_vfprintf_r+0x1cb4>
    3cfc:	d4 01 10 78 	l.sw 120(r1),r2
    3d00:	9d 8c 00 08 	l.addi r12,r12,8
    3d04:	bd 74 00 00 	l.sfgesi r20,0
    3d08:	0c 00 02 87 	l.bnf 4724 <_vfprintf_r+0x1cd8>
    3d0c:	15 00 00 00 	l.nop 0x0
    3d10:	84 41 00 40 	l.lwz r2,64(r1)
    3d14:	e2 82 a0 02 	l.sub r20,r2,r20
    3d18:	bd b4 00 00 	l.sflesi r20,0
    3d1c:	10 00 00 74 	l.bf 3eec <_vfprintf_r+0x14a0>
    3d20:	1b 80 00 01 	l.movhi r28,0x1
    3d24:	bd 54 00 10 	l.sfgtsi r20,16
    3d28:	84 41 00 78 	l.lwz r2,120(r1)
    3d2c:	0c 00 01 cd 	l.bnf 4460 <_vfprintf_r+0x1a14>
    3d30:	ab 9c 25 80 	l.ori r28,r28,0x2580
    3d34:	00 00 00 07 	l.j 3d50 <_vfprintf_r+0x1304>
    3d38:	9f c0 00 10 	l.addi r30,r0,16
    3d3c:	9d 8c 00 08 	l.addi r12,r12,8
    3d40:	9e 94 ff f0 	l.addi r20,r20,-16
    3d44:	bd 54 00 10 	l.sfgtsi r20,16
    3d48:	0c 00 01 c6 	l.bnf 4460 <_vfprintf_r+0x1a14>
    3d4c:	15 00 00 00 	l.nop 0x0
    3d50:	9c 42 00 01 	l.addi r2,r2,1
    3d54:	9c e7 00 10 	l.addi r7,r7,16
    3d58:	d4 0c e0 00 	l.sw 0(r12),r28
    3d5c:	d4 0c f0 04 	l.sw 4(r12),r30
    3d60:	d4 01 38 7c 	l.sw 124(r1),r7
    3d64:	bd 42 00 07 	l.sfgtsi r2,7
    3d68:	0f ff ff f5 	l.bnf 3d3c <_vfprintf_r+0x12f0>
    3d6c:	d4 01 10 78 	l.sw 120(r1),r2
    3d70:	9c a1 00 74 	l.addi r5,r1,116
    3d74:	a8 9a 00 00 	l.ori r4,r26,0x0
    3d78:	04 00 1b a0 	l.jal abf8 <__sprint_r>
    3d7c:	a8 76 00 00 	l.ori r3,r22,0x0
    3d80:	bc 2b 00 00 	l.sfnei r11,0
    3d84:	13 ff fb e6 	l.bf 2d1c <_vfprintf_r+0x2d0>
    3d88:	84 e1 00 7c 	l.lwz r7,124(r1)
    3d8c:	84 41 00 78 	l.lwz r2,120(r1)
    3d90:	03 ff ff ec 	l.j 3d40 <_vfprintf_r+0x12f4>
    3d94:	9d 81 00 a8 	l.addi r12,r1,168
    3d98:	84 e1 00 10 	l.lwz r7,16(r1)
    3d9c:	9d 00 00 30 	l.addi r8,r0,48
    3da0:	e0 c6 38 02 	l.sub r6,r6,r7
    3da4:	d8 01 40 a7 	l.sb 167(r1),r8
    3da8:	d4 01 30 28 	l.sw 40(r1),r6
    3dac:	9c a0 00 00 	l.addi r5,r0,0
    3db0:	03 ff fc b7 	l.j 308c <_vfprintf_r+0x640>
    3db4:	9f 01 00 a7 	l.addi r24,r1,167
    3db8:	03 ff fc ff 	l.j 31b4 <_vfprintf_r+0x768>
    3dbc:	90 a1 00 59 	l.lbs r5,89(r1)
    3dc0:	9c a1 00 74 	l.addi r5,r1,116
    3dc4:	a8 9a 00 00 	l.ori r4,r26,0x0
    3dc8:	04 00 1b 8c 	l.jal abf8 <__sprint_r>
    3dcc:	a8 76 00 00 	l.ori r3,r22,0x0
    3dd0:	bc 2b 00 00 	l.sfnei r11,0
    3dd4:	13 ff fb d2 	l.bf 2d1c <_vfprintf_r+0x2d0>
    3dd8:	90 a1 00 59 	l.lbs r5,89(r1)
    3ddc:	84 e1 00 7c 	l.lwz r7,124(r1)
    3de0:	03 ff fe 01 	l.j 35e4 <_vfprintf_r+0xb98>
    3de4:	9d 81 00 a8 	l.addi r12,r1,168
    3de8:	9f 07 ff ff 	l.addi r24,r7,-1
    3dec:	bd b8 00 00 	l.sflesi r24,0
    3df0:	13 ff ff 6a 	l.bf 3b98 <_vfprintf_r+0x114c>
    3df4:	1b 80 00 01 	l.movhi r28,0x1
    3df8:	bd b8 00 10 	l.sflesi r24,16
    3dfc:	10 00 00 96 	l.bf 4054 <_vfprintf_r+0x1608>
    3e00:	ab 9c 25 80 	l.ori r28,r28,0x2580
    3e04:	00 00 00 07 	l.j 3e20 <_vfprintf_r+0x13d4>
    3e08:	9c c0 00 10 	l.addi r6,r0,16
    3e0c:	9e 94 00 08 	l.addi r20,r20,8
    3e10:	9f 18 ff f0 	l.addi r24,r24,-16
    3e14:	bd 58 00 10 	l.sfgtsi r24,16
    3e18:	0c 00 00 8f 	l.bnf 4054 <_vfprintf_r+0x1608>
    3e1c:	15 00 00 00 	l.nop 0x0
    3e20:	9c 42 00 01 	l.addi r2,r2,1
    3e24:	9f de 00 10 	l.addi r30,r30,16
    3e28:	d4 14 e0 00 	l.sw 0(r20),r28
    3e2c:	d4 14 30 04 	l.sw 4(r20),r6
    3e30:	d4 01 f0 7c 	l.sw 124(r1),r30
    3e34:	bd 42 00 07 	l.sfgtsi r2,7
    3e38:	0f ff ff f5 	l.bnf 3e0c <_vfprintf_r+0x13c0>
    3e3c:	d4 01 10 78 	l.sw 120(r1),r2
    3e40:	9c a1 00 74 	l.addi r5,r1,116
    3e44:	a8 9a 00 00 	l.ori r4,r26,0x0
    3e48:	a8 76 00 00 	l.ori r3,r22,0x0
    3e4c:	04 00 1b 6b 	l.jal abf8 <__sprint_r>
    3e50:	d4 01 30 0c 	l.sw 12(r1),r6
    3e54:	bc 2b 00 00 	l.sfnei r11,0
    3e58:	13 ff fb b1 	l.bf 2d1c <_vfprintf_r+0x2d0>
    3e5c:	84 c1 00 0c 	l.lwz r6,12(r1)
    3e60:	87 c1 00 7c 	l.lwz r30,124(r1)
    3e64:	84 41 00 78 	l.lwz r2,120(r1)
    3e68:	03 ff ff ea 	l.j 3e10 <_vfprintf_r+0x13c4>
    3e6c:	9e 81 00 a8 	l.addi r20,r1,168
    3e70:	13 ff fc f9 	l.bf 3254 <_vfprintf_r+0x808>
    3e74:	d8 01 20 59 	l.sb 89(r1),r4
    3e78:	e0 80 10 02 	l.sub r4,r0,r2
    3e7c:	9c e0 ff 7f 	l.addi r7,r0,-129
    3e80:	e0 84 10 04 	l.or r4,r4,r2
    3e84:	bd 84 00 00 	l.sfltsi r4,0
    3e88:	13 ff fc f3 	l.bf 3254 <_vfprintf_r+0x808>
    3e8c:	e1 ce 38 03 	l.and r14,r14,r7
    3e90:	e0 a0 18 02 	l.sub r5,r0,r3
    3e94:	e0 a5 18 04 	l.or r5,r5,r3
    3e98:	b8 a5 00 5f 	l.srli r5,r5,0x1f
    3e9c:	bc 25 00 00 	l.sfnei r5,0
    3ea0:	0f ff fc 78 	l.bnf 3080 <_vfprintf_r+0x634>
    3ea4:	9f 01 00 a8 	l.addi r24,r1,168
    3ea8:	03 ff fc ed 	l.j 325c <_vfprintf_r+0x810>
    3eac:	a4 83 00 0f 	l.andi r4,r3,0xf
    3eb0:	bc 03 00 00 	l.sfeqi r3,0
    3eb4:	10 00 01 58 	l.bf 4414 <_vfprintf_r+0x19c8>
    3eb8:	84 61 00 2c 	l.lwz r3,44(r1)
    3ebc:	9b 83 00 02 	l.lhs r28,2(r3)
    3ec0:	9c 63 00 04 	l.addi r3,r3,4
    3ec4:	03 ff fd 13 	l.j 3310 <_vfprintf_r+0x8c4>
    3ec8:	d4 01 18 2c 	l.sw 44(r1),r3
    3ecc:	9c a1 00 74 	l.addi r5,r1,116
    3ed0:	a8 9a 00 00 	l.ori r4,r26,0x0
    3ed4:	04 00 1b 49 	l.jal abf8 <__sprint_r>
    3ed8:	a8 76 00 00 	l.ori r3,r22,0x0
    3edc:	bc 2b 00 00 	l.sfnei r11,0
    3ee0:	13 ff fb 8f 	l.bf 2d1c <_vfprintf_r+0x2d0>
    3ee4:	84 e1 00 7c 	l.lwz r7,124(r1)
    3ee8:	9d 81 00 a8 	l.addi r12,r1,168
    3eec:	85 01 00 40 	l.lwz r8,64(r1)
    3ef0:	84 41 00 5c 	l.lwz r2,92(r1)
    3ef4:	e3 98 40 00 	l.add r28,r24,r8
    3ef8:	85 01 00 3c 	l.lwz r8,60(r1)
    3efc:	e5 48 10 00 	l.sfgts r8,r2
    3f00:	10 00 00 3f 	l.bf 3ffc <_vfprintf_r+0x15b0>
    3f04:	85 61 00 50 	l.lwz r11,80(r1)
    3f08:	a4 6e 00 01 	l.andi r3,r14,0x1
    3f0c:	bc 03 00 00 	l.sfeqi r3,0
    3f10:	0c 00 00 3c 	l.bnf 4000 <_vfprintf_r+0x15b4>
    3f14:	84 61 00 78 	l.lwz r3,120(r1)
    3f18:	85 01 00 3c 	l.lwz r8,60(r1)
    3f1c:	e2 98 40 00 	l.add r20,r24,r8
    3f20:	e0 48 10 02 	l.sub r2,r8,r2
    3f24:	e2 94 e0 02 	l.sub r20,r20,r28
    3f28:	e5 b4 10 00 	l.sfles r20,r2
    3f2c:	10 00 00 04 	l.bf 3f3c <_vfprintf_r+0x14f0>
    3f30:	bd b4 00 00 	l.sflesi r20,0
    3f34:	aa 82 00 00 	l.ori r20,r2,0x0
    3f38:	bd b4 00 00 	l.sflesi r20,0
    3f3c:	10 00 00 0d 	l.bf 3f70 <_vfprintf_r+0x1524>
    3f40:	bd 74 00 00 	l.sfgesi r20,0
    3f44:	84 61 00 78 	l.lwz r3,120(r1)
    3f48:	e0 e7 a0 00 	l.add r7,r7,r20
    3f4c:	9c 63 00 01 	l.addi r3,r3,1
    3f50:	d4 0c e0 00 	l.sw 0(r12),r28
    3f54:	d4 0c a0 04 	l.sw 4(r12),r20
    3f58:	d4 01 38 7c 	l.sw 124(r1),r7
    3f5c:	bd 43 00 07 	l.sfgtsi r3,7
    3f60:	10 00 01 f3 	l.bf 472c <_vfprintf_r+0x1ce0>
    3f64:	d4 01 18 78 	l.sw 120(r1),r3
    3f68:	9d 8c 00 08 	l.addi r12,r12,8
    3f6c:	bd 74 00 00 	l.sfgesi r20,0
    3f70:	0c 00 02 59 	l.bnf 48d4 <_vfprintf_r+0x1e88>
    3f74:	15 00 00 00 	l.nop 0x0
    3f78:	e2 82 a0 02 	l.sub r20,r2,r20
    3f7c:	bd b4 00 00 	l.sflesi r20,0
    3f80:	13 ff fd f7 	l.bf 375c <_vfprintf_r+0xd10>
    3f84:	1b 80 00 01 	l.movhi r28,0x1
    3f88:	bd 54 00 10 	l.sfgtsi r20,16
    3f8c:	84 41 00 78 	l.lwz r2,120(r1)
    3f90:	0f ff fe 37 	l.bnf 386c <_vfprintf_r+0xe20>
    3f94:	ab 9c 25 80 	l.ori r28,r28,0x2580
    3f98:	00 00 00 07 	l.j 3fb4 <_vfprintf_r+0x1568>
    3f9c:	9f 00 00 10 	l.addi r24,r0,16
    3fa0:	9d 8c 00 08 	l.addi r12,r12,8
    3fa4:	9e 94 ff f0 	l.addi r20,r20,-16
    3fa8:	bd 54 00 10 	l.sfgtsi r20,16
    3fac:	0f ff fe 30 	l.bnf 386c <_vfprintf_r+0xe20>
    3fb0:	15 00 00 00 	l.nop 0x0
    3fb4:	9c 42 00 01 	l.addi r2,r2,1
    3fb8:	9c e7 00 10 	l.addi r7,r7,16
    3fbc:	d4 0c e0 00 	l.sw 0(r12),r28
    3fc0:	d4 0c c0 04 	l.sw 4(r12),r24
    3fc4:	d4 01 38 7c 	l.sw 124(r1),r7
    3fc8:	bd 42 00 07 	l.sfgtsi r2,7
    3fcc:	0f ff ff f5 	l.bnf 3fa0 <_vfprintf_r+0x1554>
    3fd0:	d4 01 10 78 	l.sw 120(r1),r2
    3fd4:	9c a1 00 74 	l.addi r5,r1,116
    3fd8:	a8 9a 00 00 	l.ori r4,r26,0x0
    3fdc:	04 00 1b 07 	l.jal abf8 <__sprint_r>
    3fe0:	a8 76 00 00 	l.ori r3,r22,0x0
    3fe4:	bc 2b 00 00 	l.sfnei r11,0
    3fe8:	13 ff fb 4d 	l.bf 2d1c <_vfprintf_r+0x2d0>
    3fec:	84 e1 00 7c 	l.lwz r7,124(r1)
    3ff0:	84 41 00 78 	l.lwz r2,120(r1)
    3ff4:	03 ff ff ec 	l.j 3fa4 <_vfprintf_r+0x1558>
    3ff8:	9d 81 00 a8 	l.addi r12,r1,168
    3ffc:	84 61 00 78 	l.lwz r3,120(r1)
    4000:	e0 e7 58 00 	l.add r7,r7,r11
    4004:	9c 63 00 01 	l.addi r3,r3,1
    4008:	84 81 00 44 	l.lwz r4,68(r1)
    400c:	d4 0c 58 04 	l.sw 4(r12),r11
    4010:	d4 0c 20 00 	l.sw 0(r12),r4
    4014:	d4 01 38 7c 	l.sw 124(r1),r7
    4018:	bd 43 00 07 	l.sfgtsi r3,7
    401c:	10 00 02 16 	l.bf 4874 <_vfprintf_r+0x1e28>
    4020:	d4 01 18 78 	l.sw 120(r1),r3
    4024:	03 ff ff bd 	l.j 3f18 <_vfprintf_r+0x14cc>
    4028:	9d 8c 00 08 	l.addi r12,r12,8
    402c:	9c a1 00 74 	l.addi r5,r1,116
    4030:	a8 9a 00 00 	l.ori r4,r26,0x0
    4034:	04 00 1a f1 	l.jal abf8 <__sprint_r>
    4038:	a8 76 00 00 	l.ori r3,r22,0x0
    403c:	bc 2b 00 00 	l.sfnei r11,0
    4040:	13 ff fb 37 	l.bf 2d1c <_vfprintf_r+0x2d0>
    4044:	84 e1 00 7c 	l.lwz r7,124(r1)
    4048:	84 41 00 78 	l.lwz r2,120(r1)
    404c:	03 ff fe ad 	l.j 3b00 <_vfprintf_r+0x10b4>
    4050:	9d 81 00 a8 	l.addi r12,r1,168
    4054:	9c 42 00 01 	l.addi r2,r2,1
    4058:	e3 de c0 00 	l.add r30,r30,r24
    405c:	d4 14 e0 00 	l.sw 0(r20),r28
    4060:	d4 14 c0 04 	l.sw 4(r20),r24
    4064:	d4 01 f0 7c 	l.sw 124(r1),r30
    4068:	bd 42 00 07 	l.sfgtsi r2,7
    406c:	0f ff fe ca 	l.bnf 3b94 <_vfprintf_r+0x1148>
    4070:	d4 01 10 78 	l.sw 120(r1),r2
    4074:	03 ff fe e2 	l.j 3bfc <_vfprintf_r+0x11b0>
    4078:	9c a1 00 74 	l.addi r5,r1,116
    407c:	9c a1 00 74 	l.addi r5,r1,116
    4080:	a8 9a 00 00 	l.ori r4,r26,0x0
    4084:	04 00 1a dd 	l.jal abf8 <__sprint_r>
    4088:	a8 76 00 00 	l.ori r3,r22,0x0
    408c:	bc 2b 00 00 	l.sfnei r11,0
    4090:	13 ff fb 23 	l.bf 2d1c <_vfprintf_r+0x2d0>
    4094:	87 c1 00 7c 	l.lwz r30,124(r1)
    4098:	84 41 00 78 	l.lwz r2,120(r1)
    409c:	03 ff fe a4 	l.j 3b2c <_vfprintf_r+0x10e0>
    40a0:	9e 81 00 a8 	l.addi r20,r1,168
    40a4:	d4 01 10 20 	l.sw 32(r1),r2
    40a8:	9f 01 00 a8 	l.addi r24,r1,168
    40ac:	a8 5c 00 00 	l.ori r2,r28,0x0
    40b0:	ab 85 00 00 	l.ori r28,r5,0x0
    40b4:	a8 62 00 00 	l.ori r3,r2,0x0
    40b8:	9c 80 00 0a 	l.addi r4,r0,10
    40bc:	04 00 2b e6 	l.jal f054 <__umodsi3>
    40c0:	9f 18 ff ff 	l.addi r24,r24,-1
    40c4:	9d 6b 00 30 	l.addi r11,r11,48
    40c8:	a8 62 00 00 	l.ori r3,r2,0x0
    40cc:	9c 80 00 0a 	l.addi r4,r0,10
    40d0:	04 00 2b 89 	l.jal eef4 <__udivsi3>
    40d4:	d8 18 58 00 	l.sb 0(r24),r11
    40d8:	bc 2b 00 00 	l.sfnei r11,0
    40dc:	13 ff ff f6 	l.bf 40b4 <_vfprintf_r+0x1668>
    40e0:	a8 4b 00 00 	l.ori r2,r11,0x0
    40e4:	84 c1 00 1c 	l.lwz r6,28(r1)
    40e8:	84 41 00 20 	l.lwz r2,32(r1)
    40ec:	e0 c6 c0 02 	l.sub r6,r6,r24
    40f0:	a9 9e 00 00 	l.ori r12,r30,0x0
    40f4:	a8 bc 00 00 	l.ori r5,r28,0x0
    40f8:	03 ff fb e5 	l.j 308c <_vfprintf_r+0x640>
    40fc:	d4 01 30 28 	l.sw 40(r1),r6
    4100:	9c a1 00 74 	l.addi r5,r1,116
    4104:	a8 9a 00 00 	l.ori r4,r26,0x0
    4108:	04 00 1a bc 	l.jal abf8 <__sprint_r>
    410c:	a8 76 00 00 	l.ori r3,r22,0x0
    4110:	bc 2b 00 00 	l.sfnei r11,0
    4114:	13 ff fb 02 	l.bf 2d1c <_vfprintf_r+0x2d0>
    4118:	84 e1 00 7c 	l.lwz r7,124(r1)
    411c:	03 ff fd 55 	l.j 3670 <_vfprintf_r+0xc24>
    4120:	9d 81 00 a8 	l.addi r12,r1,168
    4124:	9c c0 00 2d 	l.addi r6,r0,45
    4128:	d8 01 30 59 	l.sb 89(r1),r6
    412c:	10 00 01 dc 	l.bf 489c <_vfprintf_r+0x1e50>
    4130:	e3 80 e0 02 	l.sub r28,r0,r28
    4134:	9c e0 ff 7f 	l.addi r7,r0,-129
    4138:	9c a0 00 2d 	l.addi r5,r0,45
    413c:	03 ff fc 1e 	l.j 31b4 <_vfprintf_r+0x768>
    4140:	e1 ce 38 03 	l.and r14,r14,r7
    4144:	13 ff fc 44 	l.bf 3254 <_vfprintf_r+0x808>
    4148:	d8 01 18 59 	l.sb 89(r1),r3
    414c:	9c a0 ff 7f 	l.addi r5,r0,-129
    4150:	bc 22 00 00 	l.sfnei r2,0
    4154:	13 ff fc 40 	l.bf 3254 <_vfprintf_r+0x808>
    4158:	e1 ce 28 03 	l.and r14,r14,r5
    415c:	03 ff fb c9 	l.j 3080 <_vfprintf_r+0x634>
    4160:	a8 a2 00 00 	l.ori r5,r2,0x0
    4164:	84 61 00 4c 	l.lwz r3,76(r1)
    4168:	84 c1 00 48 	l.lwz r6,72(r1)
    416c:	a8 a3 00 00 	l.ori r5,r3,0x0
    4170:	a8 86 00 00 	l.ori r4,r6,0x0
    4174:	e0 64 00 04 	l.or r3,r4,r0
    4178:	e0 85 00 04 	l.or r4,r5,r0
    417c:	04 00 19 3d 	l.jal a670 <__fpclassifyd>
    4180:	d4 01 60 08 	l.sw 8(r1),r12
    4184:	bc 2b 00 00 	l.sfnei r11,0
    4188:	0c 00 01 1a 	l.bnf 45f0 <_vfprintf_r+0x1ba4>
    418c:	85 81 00 08 	l.lwz r12,8(r1)
    4190:	bc 22 ff ff 	l.sfnei r2,-1
    4194:	0c 00 01 7c 	l.bnf 4784 <_vfprintf_r+0x1d38>
    4198:	9c 60 ff df 	l.addi r3,r0,-33
    419c:	e3 94 18 03 	l.and r28,r20,r3
    41a0:	ac 7c 00 47 	l.xori r3,r28,71
    41a4:	e0 80 18 02 	l.sub r4,r0,r3
    41a8:	e0 64 18 04 	l.or r3,r4,r3
    41ac:	bd 83 00 00 	l.sfltsi r3,0
    41b0:	10 00 01 78 	l.bf 4790 <_vfprintf_r+0x1d44>
    41b4:	e0 60 10 02 	l.sub r3,r0,r2
    41b8:	e0 63 10 04 	l.or r3,r3,r2
    41bc:	bd 63 00 00 	l.sfgesi r3,0
    41c0:	0c 00 01 75 	l.bnf 4794 <_vfprintf_r+0x1d48>
    41c4:	84 81 00 48 	l.lwz r4,72(r1)
    41c8:	84 41 00 48 	l.lwz r2,72(r1)
    41cc:	bd 82 00 00 	l.sfltsi r2,0
    41d0:	a8 4e 01 00 	l.ori r2,r14,0x100
    41d4:	10 00 02 1c 	l.bf 4a44 <_vfprintf_r+0x1ff8>
    41d8:	d4 01 10 38 	l.sw 56(r1),r2
    41dc:	9c 60 00 00 	l.addi r3,r0,0
    41e0:	87 c1 00 48 	l.lwz r30,72(r1)
    41e4:	9f 80 00 47 	l.addi r28,r0,71
    41e8:	9c 40 00 01 	l.addi r2,r0,1
    41ec:	d4 01 18 34 	l.sw 52(r1),r3
    41f0:	84 61 00 4c 	l.lwz r3,76(r1)
    41f4:	9c c1 00 6c 	l.addi r6,r1,108
    41f8:	a8 a3 00 00 	l.ori r5,r3,0x0
    41fc:	9c 61 00 60 	l.addi r3,r1,96
    4200:	d4 01 30 04 	l.sw 4(r1),r6
    4204:	d4 01 18 00 	l.sw 0(r1),r3
    4208:	a8 9e 00 00 	l.ori r4,r30,0x0
    420c:	9d 01 00 5c 	l.addi r8,r1,92
    4210:	a8 e2 00 00 	l.ori r7,r2,0x0
    4214:	9c c0 00 02 	l.addi r6,r0,2
    4218:	a8 76 00 00 	l.ori r3,r22,0x0
    421c:	04 00 04 e4 	l.jal 55ac <_dtoa_r>
    4220:	d4 01 60 08 	l.sw 8(r1),r12
    4224:	bc 3c 00 47 	l.sfnei r28,71
    4228:	ab 0b 00 00 	l.ori r24,r11,0x0
    422c:	10 00 02 ba 	l.bf 4d14 <_vfprintf_r+0x22c8>
    4230:	85 81 00 08 	l.lwz r12,8(r1)
    4234:	a4 6e 00 01 	l.andi r3,r14,0x1
    4238:	bc 23 00 00 	l.sfnei r3,0
    423c:	0c 00 02 23 	l.bnf 4ac8 <_vfprintf_r+0x207c>
    4240:	e0 eb 10 00 	l.add r7,r11,r2
    4244:	85 01 00 4c 	l.lwz r8,76(r1)
    4248:	19 60 00 01 	l.movhi r11,0x1
    424c:	a8 7e 00 00 	l.ori r3,r30,0x0
    4250:	a9 6b 24 14 	l.ori r11,r11,0x2414
    4254:	a8 88 00 00 	l.ori r4,r8,0x0
    4258:	d4 01 38 0c 	l.sw 12(r1),r7
    425c:	84 ab 00 00 	l.lwz r5,0(r11)
    4260:	84 cb 00 04 	l.lwz r6,4(r11)
    4264:	04 00 31 5e 	l.jal 107dc <__eqdf2>
    4268:	d4 01 60 08 	l.sw 8(r1),r12
    426c:	84 e1 00 0c 	l.lwz r7,12(r1)
    4270:	bc 0b 00 00 	l.sfeqi r11,0
    4274:	a8 67 00 00 	l.ori r3,r7,0x0
    4278:	10 00 00 0d 	l.bf 42ac <_vfprintf_r+0x1860>
    427c:	85 81 00 08 	l.lwz r12,8(r1)
    4280:	84 61 00 6c 	l.lwz r3,108(r1)
    4284:	e4 a7 18 00 	l.sfleu r7,r3
    4288:	10 00 00 09 	l.bf 42ac <_vfprintf_r+0x1860>
    428c:	9c 83 00 01 	l.addi r4,r3,1
    4290:	d4 01 20 6c 	l.sw 108(r1),r4
    4294:	9c 80 00 30 	l.addi r4,r0,48
    4298:	d8 03 20 00 	l.sb 0(r3),r4
    429c:	84 61 00 6c 	l.lwz r3,108(r1)
    42a0:	e4 47 18 00 	l.sfgtu r7,r3
    42a4:	13 ff ff fb 	l.bf 4290 <_vfprintf_r+0x1844>
    42a8:	9c 83 00 01 	l.addi r4,r3,1
    42ac:	e0 63 c0 02 	l.sub r3,r3,r24
    42b0:	bc 3c 00 47 	l.sfnei r28,71
    42b4:	10 00 01 8c 	l.bf 48e4 <_vfprintf_r+0x1e98>
    42b8:	d4 01 18 3c 	l.sw 60(r1),r3
    42bc:	84 61 00 5c 	l.lwz r3,92(r1)
    42c0:	e5 43 10 00 	l.sfgts r3,r2
    42c4:	10 00 00 03 	l.bf 42d0 <_vfprintf_r+0x1884>
    42c8:	9c 80 00 01 	l.addi r4,r0,1
    42cc:	9c 80 00 00 	l.addi r4,r0,0
    42d0:	a4 44 00 ff 	l.andi r2,r4,0xff
    42d4:	bc 22 00 00 	l.sfnei r2,0
    42d8:	10 00 01 96 	l.bf 4930 <_vfprintf_r+0x1ee4>
    42dc:	bd 83 ff fd 	l.sfltsi r3,-3
    42e0:	10 00 00 03 	l.bf 42ec <_vfprintf_r+0x18a0>
    42e4:	9c 80 00 01 	l.addi r4,r0,1
    42e8:	a8 82 00 00 	l.ori r4,r2,0x0
    42ec:	a4 84 00 ff 	l.andi r4,r4,0xff
    42f0:	bc 04 00 00 	l.sfeqi r4,0
    42f4:	0c 00 01 8f 	l.bnf 4930 <_vfprintf_r+0x1ee4>
    42f8:	d4 01 18 40 	l.sw 64(r1),r3
    42fc:	84 41 00 3c 	l.lwz r2,60(r1)
    4300:	84 e1 00 40 	l.lwz r7,64(r1)
    4304:	e5 42 38 00 	l.sfgts r2,r7
    4308:	10 00 01 bd 	l.bf 49fc <_vfprintf_r+0x1fb0>
    430c:	bd 47 00 00 	l.sfgtsi r7,0
    4310:	a5 ce 00 01 	l.andi r14,r14,0x1
    4314:	bc 2e 00 00 	l.sfnei r14,0
    4318:	10 00 01 c3 	l.bf 4a24 <_vfprintf_r+0x1fd8>
    431c:	84 41 00 40 	l.lwz r2,64(r1)
    4320:	bd 67 00 00 	l.sfgesi r7,0
    4324:	0c 00 02 6d 	l.bnf 4cd8 <_vfprintf_r+0x228c>
    4328:	a8 67 00 00 	l.ori r3,r7,0x0
    432c:	85 01 00 40 	l.lwz r8,64(r1)
    4330:	9e 80 00 67 	l.addi r20,r0,103
    4334:	d4 01 40 28 	l.sw 40(r1),r8
    4338:	84 41 00 34 	l.lwz r2,52(r1)
    433c:	bc 22 00 00 	l.sfnei r2,0
    4340:	10 00 01 77 	l.bf 491c <_vfprintf_r+0x1ed0>
    4344:	9c 80 00 2d 	l.addi r4,r0,45
    4348:	90 a1 00 59 	l.lbs r5,89(r1)
    434c:	d4 01 18 20 	l.sw 32(r1),r3
    4350:	03 ff fa a9 	l.j 2df4 <_vfprintf_r+0x3a8>
    4354:	85 c1 00 38 	l.lwz r14,56(r1)
    4358:	84 a1 00 2c 	l.lwz r5,44(r1)
    435c:	84 c1 00 2c 	l.lwz r6,44(r1)
    4360:	84 84 00 00 	l.lwz r4,0(r4)
    4364:	84 a5 00 04 	l.lwz r5,4(r5)
    4368:	9c c6 00 08 	l.addi r6,r6,8
    436c:	d4 01 20 48 	l.sw 72(r1),r4
    4370:	d4 01 28 4c 	l.sw 76(r1),r5
    4374:	03 ff fc 09 	l.j 3398 <_vfprintf_r+0x94c>
    4378:	d4 01 30 2c 	l.sw 44(r1),r6
    437c:	d8 01 18 59 	l.sb 89(r1),r3
    4380:	84 61 00 2c 	l.lwz r3,44(r1)
    4384:	9c c3 00 04 	l.addi r6,r3,4
    4388:	0f ff fc 7e 	l.bnf 3580 <_vfprintf_r+0xb34>
    438c:	84 63 00 00 	l.lwz r3,0(r3)
    4390:	e0 80 18 02 	l.sub r4,r0,r3
    4394:	9c a0 ff 7f 	l.addi r5,r0,-129
    4398:	e0 84 18 04 	l.or r4,r4,r3
    439c:	bd 84 00 00 	l.sfltsi r4,0
    43a0:	13 ff fc 78 	l.bf 3580 <_vfprintf_r+0xb34>
    43a4:	e1 ce 28 03 	l.and r14,r14,r5
    43a8:	e0 80 10 02 	l.sub r4,r0,r2
    43ac:	e0 84 10 04 	l.or r4,r4,r2
    43b0:	bd 64 00 00 	l.sfgesi r4,0
    43b4:	13 ff fb 59 	l.bf 3118 <_vfprintf_r+0x6cc>
    43b8:	d4 01 30 2c 	l.sw 44(r1),r6
    43bc:	03 ff fc 72 	l.j 3584 <_vfprintf_r+0xb38>
    43c0:	9c a1 00 a8 	l.addi r5,r1,168
    43c4:	18 c0 00 01 	l.movhi r6,0x1
    43c8:	9e 80 00 78 	l.addi r20,r0,120
    43cc:	03 ff fb a2 	l.j 3254 <_vfprintf_r+0x808>
    43d0:	a8 c6 23 f7 	l.ori r6,r6,0x23f7
    43d4:	a5 ce 00 40 	l.andi r14,r14,0x40
    43d8:	bc 0e 00 00 	l.sfeqi r14,0
    43dc:	10 00 00 7f 	l.bf 45d8 <_vfprintf_r+0x1b8c>
    43e0:	84 61 00 30 	l.lwz r3,48(r1)
    43e4:	84 e1 00 2c 	l.lwz r7,44(r1)
    43e8:	85 01 00 30 	l.lwz r8,48(r1)
    43ec:	84 47 00 00 	l.lwz r2,0(r7)
    43f0:	9c e7 00 04 	l.addi r7,r7,4
    43f4:	dc 02 40 00 	l.sh 0(r2),r8
    43f8:	03 ff f9 d9 	l.j 2b5c <_vfprintf_r+0x110>
    43fc:	d4 01 38 2c 	l.sw 44(r1),r7
    4400:	84 e1 00 2c 	l.lwz r7,44(r1)
    4404:	84 67 00 00 	l.lwz r3,0(r7)
    4408:	9c e7 00 04 	l.addi r7,r7,4
    440c:	03 ff fb 81 	l.j 3210 <_vfprintf_r+0x7c4>
    4410:	d4 01 38 2c 	l.sw 44(r1),r7
    4414:	84 81 00 2c 	l.lwz r4,44(r1)
    4418:	87 84 00 00 	l.lwz r28,0(r4)
    441c:	9c 84 00 04 	l.addi r4,r4,4
    4420:	03 ff fb bc 	l.j 3310 <_vfprintf_r+0x8c4>
    4424:	d4 01 20 2c 	l.sw 44(r1),r4
    4428:	d8 01 28 59 	l.sb 89(r1),r5
    442c:	bd 62 00 00 	l.sfgesi r2,0
    4430:	9c 8b 00 04 	l.addi r4,r11,4
    4434:	0c 00 01 2a 	l.bnf 48dc <_vfprintf_r+0x1e90>
    4438:	87 8b 00 00 	l.lwz r28,0(r11)
    443c:	e0 60 e0 02 	l.sub r3,r0,r28
    4440:	9d 00 ff 7f 	l.addi r8,r0,-129
    4444:	e0 63 e0 04 	l.or r3,r3,r28
    4448:	d4 01 20 2c 	l.sw 44(r1),r4
    444c:	bd 83 00 00 	l.sfltsi r3,0
    4450:	0f ff fa c0 	l.bnf 2f50 <_vfprintf_r+0x504>
    4454:	e1 ce 40 03 	l.and r14,r14,r8
    4458:	03 ff fb 57 	l.j 31b4 <_vfprintf_r+0x768>
    445c:	9c a0 00 00 	l.addi r5,r0,0
    4460:	9c 42 00 01 	l.addi r2,r2,1
    4464:	e0 e7 a0 00 	l.add r7,r7,r20
    4468:	d4 0c e0 00 	l.sw 0(r12),r28
    446c:	d4 0c a0 04 	l.sw 4(r12),r20
    4470:	d4 01 38 7c 	l.sw 124(r1),r7
    4474:	bd 42 00 07 	l.sfgtsi r2,7
    4478:	13 ff fe 95 	l.bf 3ecc <_vfprintf_r+0x1480>
    447c:	d4 01 10 78 	l.sw 120(r1),r2
    4480:	03 ff fe 9b 	l.j 3eec <_vfprintf_r+0x14a0>
    4484:	9d 8c 00 08 	l.addi r12,r12,8
    4488:	9c a1 00 74 	l.addi r5,r1,116
    448c:	a8 9a 00 00 	l.ori r4,r26,0x0
    4490:	04 00 19 da 	l.jal abf8 <__sprint_r>
    4494:	a8 76 00 00 	l.ori r3,r22,0x0
    4498:	bc 2b 00 00 	l.sfnei r11,0
    449c:	13 ff fa 20 	l.bf 2d1c <_vfprintf_r+0x2d0>
    44a0:	84 e1 00 7c 	l.lwz r7,124(r1)
    44a4:	03 ff fd 23 	l.j 3930 <_vfprintf_r+0xee4>
    44a8:	9d 81 00 a8 	l.addi r12,r1,168
    44ac:	18 60 00 01 	l.movhi r3,0x1
    44b0:	84 41 00 78 	l.lwz r2,120(r1)
    44b4:	a8 63 24 0f 	l.ori r3,r3,0x240f
    44b8:	9c 42 00 01 	l.addi r2,r2,1
    44bc:	9c e7 00 01 	l.addi r7,r7,1
    44c0:	d4 0c 18 00 	l.sw 0(r12),r3
    44c4:	9c 60 00 01 	l.addi r3,r0,1
    44c8:	d4 01 38 7c 	l.sw 124(r1),r7
    44cc:	d4 0c 18 04 	l.sw 4(r12),r3
    44d0:	bd 42 00 07 	l.sfgtsi r2,7
    44d4:	10 00 00 58 	l.bf 4634 <_vfprintf_r+0x1be8>
    44d8:	d4 01 10 78 	l.sw 120(r1),r2
    44dc:	9d 8c 00 08 	l.addi r12,r12,8
    44e0:	85 01 00 3c 	l.lwz r8,60(r1)
    44e4:	e0 48 a0 04 	l.or r2,r8,r20
    44e8:	bc 22 00 00 	l.sfnei r2,0
    44ec:	10 00 00 06 	l.bf 4504 <_vfprintf_r+0x1ab8>
    44f0:	84 41 00 50 	l.lwz r2,80(r1)
    44f4:	a4 4e 00 01 	l.andi r2,r14,0x1
    44f8:	bc 02 00 00 	l.sfeqi r2,0
    44fc:	13 ff fc 98 	l.bf 375c <_vfprintf_r+0xd10>
    4500:	84 41 00 50 	l.lwz r2,80(r1)
    4504:	84 61 00 44 	l.lwz r3,68(r1)
    4508:	e0 e2 38 00 	l.add r7,r2,r7
    450c:	84 41 00 78 	l.lwz r2,120(r1)
    4510:	84 81 00 50 	l.lwz r4,80(r1)
    4514:	9c 42 00 01 	l.addi r2,r2,1
    4518:	d4 0c 18 00 	l.sw 0(r12),r3
    451c:	d4 0c 20 04 	l.sw 4(r12),r4
    4520:	d4 01 38 7c 	l.sw 124(r1),r7
    4524:	bd 42 00 07 	l.sfgtsi r2,7
    4528:	10 00 01 2a 	l.bf 49d0 <_vfprintf_r+0x1f84>
    452c:	d4 01 10 78 	l.sw 120(r1),r2
    4530:	9d 8c 00 08 	l.addi r12,r12,8
    4534:	e2 80 a0 02 	l.sub r20,r0,r20
    4538:	bd b4 00 00 	l.sflesi r20,0
    453c:	10 00 00 63 	l.bf 46c8 <_vfprintf_r+0x1c7c>
    4540:	1b 80 00 01 	l.movhi r28,0x1
    4544:	bd b4 00 10 	l.sflesi r20,16
    4548:	10 00 00 85 	l.bf 475c <_vfprintf_r+0x1d10>
    454c:	ab 9c 25 80 	l.ori r28,r28,0x2580
    4550:	00 00 00 07 	l.j 456c <_vfprintf_r+0x1b20>
    4554:	9f c0 00 10 	l.addi r30,r0,16
    4558:	9d 8c 00 08 	l.addi r12,r12,8
    455c:	9e 94 ff f0 	l.addi r20,r20,-16
    4560:	bd 54 00 10 	l.sfgtsi r20,16
    4564:	0c 00 00 7e 	l.bnf 475c <_vfprintf_r+0x1d10>
    4568:	15 00 00 00 	l.nop 0x0
    456c:	9c 42 00 01 	l.addi r2,r2,1
    4570:	9c e7 00 10 	l.addi r7,r7,16
    4574:	d4 0c e0 00 	l.sw 0(r12),r28
    4578:	d4 0c f0 04 	l.sw 4(r12),r30
    457c:	d4 01 38 7c 	l.sw 124(r1),r7
    4580:	bd 42 00 07 	l.sfgtsi r2,7
    4584:	0f ff ff f5 	l.bnf 4558 <_vfprintf_r+0x1b0c>
    4588:	d4 01 10 78 	l.sw 120(r1),r2
    458c:	9c a1 00 74 	l.addi r5,r1,116
    4590:	a8 9a 00 00 	l.ori r4,r26,0x0
    4594:	04 00 19 99 	l.jal abf8 <__sprint_r>
    4598:	a8 76 00 00 	l.ori r3,r22,0x0
    459c:	bc 2b 00 00 	l.sfnei r11,0
    45a0:	13 ff f9 df 	l.bf 2d1c <_vfprintf_r+0x2d0>
    45a4:	84 e1 00 7c 	l.lwz r7,124(r1)
    45a8:	84 41 00 78 	l.lwz r2,120(r1)
    45ac:	03 ff ff ec 	l.j 455c <_vfprintf_r+0x1b10>
    45b0:	9d 81 00 a8 	l.addi r12,r1,168
    45b4:	84 e1 00 1c 	l.lwz r7,28(r1)
    45b8:	ab 05 00 00 	l.ori r24,r5,0x0
    45bc:	e0 e7 28 02 	l.sub r7,r7,r5
    45c0:	d4 01 30 2c 	l.sw 44(r1),r6
    45c4:	d4 01 38 28 	l.sw 40(r1),r7
    45c8:	03 ff fa b1 	l.j 308c <_vfprintf_r+0x640>
    45cc:	9c a0 00 00 	l.addi r5,r0,0
    45d0:	03 ff f9 d9 	l.j 2d34 <_vfprintf_r+0x2e8>
    45d4:	9d 60 ff ff 	l.addi r11,r0,-1
    45d8:	85 61 00 2c 	l.lwz r11,44(r1)
    45dc:	84 4b 00 00 	l.lwz r2,0(r11)
    45e0:	9d 6b 00 04 	l.addi r11,r11,4
    45e4:	d4 02 18 00 	l.sw 0(r2),r3
    45e8:	03 ff f9 5d 	l.j 2b5c <_vfprintf_r+0x110>
    45ec:	d4 01 58 2c 	l.sw 44(r1),r11
    45f0:	1b 00 00 01 	l.movhi r24,0x1
    45f4:	bd 54 00 47 	l.sfgtsi r20,71
    45f8:	10 00 00 04 	l.bf 4608 <_vfprintf_r+0x1bbc>
    45fc:	ab 18 23 e2 	l.ori r24,r24,0x23e2
    4600:	1b 00 00 01 	l.movhi r24,0x1
    4604:	ab 18 23 de 	l.ori r24,r24,0x23de
    4608:	9d 00 00 03 	l.addi r8,r0,3
    460c:	9c 40 00 00 	l.addi r2,r0,0
    4610:	9d 60 ff 7f 	l.addi r11,r0,-129
    4614:	d4 01 40 20 	l.sw 32(r1),r8
    4618:	e1 ce 58 03 	l.and r14,r14,r11
    461c:	90 a1 00 59 	l.lbs r5,89(r1)
    4620:	d4 01 40 28 	l.sw 40(r1),r8
    4624:	03 ff f9 f4 	l.j 2df4 <_vfprintf_r+0x3a8>
    4628:	d4 01 10 40 	l.sw 64(r1),r2
    462c:	03 ff fd 5b 	l.j 3b98 <_vfprintf_r+0x114c>
    4630:	9e 8c 00 08 	l.addi r20,r12,8
    4634:	9c a1 00 74 	l.addi r5,r1,116
    4638:	a8 9a 00 00 	l.ori r4,r26,0x0
    463c:	04 00 19 6f 	l.jal abf8 <__sprint_r>
    4640:	a8 76 00 00 	l.ori r3,r22,0x0
    4644:	bc 2b 00 00 	l.sfnei r11,0
    4648:	13 ff f9 b5 	l.bf 2d1c <_vfprintf_r+0x2d0>
    464c:	86 81 00 5c 	l.lwz r20,92(r1)
    4650:	84 e1 00 7c 	l.lwz r7,124(r1)
    4654:	03 ff ff a3 	l.j 44e0 <_vfprintf_r+0x1a94>
    4658:	9d 81 00 a8 	l.addi r12,r1,168
    465c:	d4 01 30 2c 	l.sw 44(r1),r6
    4660:	18 c0 00 01 	l.movhi r6,0x1
    4664:	a9 ce 00 02 	l.ori r14,r14,0x2
    4668:	a8 c6 23 f7 	l.ori r6,r6,0x23f7
    466c:	03 ff fa fa 	l.j 3254 <_vfprintf_r+0x808>
    4670:	9e 80 00 78 	l.addi r20,r0,120
    4674:	d4 01 20 2c 	l.sw 44(r1),r4
    4678:	03 ff fa cf 	l.j 31b4 <_vfprintf_r+0x768>
    467c:	9c a0 00 00 	l.addi r5,r0,0
    4680:	9c a1 00 74 	l.addi r5,r1,116
    4684:	a8 9a 00 00 	l.ori r4,r26,0x0
    4688:	04 00 19 5c 	l.jal abf8 <__sprint_r>
    468c:	a8 76 00 00 	l.ori r3,r22,0x0
    4690:	bc 2b 00 00 	l.sfnei r11,0
    4694:	13 ff f9 a2 	l.bf 2d1c <_vfprintf_r+0x2d0>
    4698:	84 e1 00 7c 	l.lwz r7,124(r1)
    469c:	03 ff fc ba 	l.j 3984 <_vfprintf_r+0xf38>
    46a0:	9d 81 00 a8 	l.addi r12,r1,168
    46a4:	9c a1 00 74 	l.addi r5,r1,116
    46a8:	a8 9a 00 00 	l.ori r4,r26,0x0
    46ac:	04 00 19 53 	l.jal abf8 <__sprint_r>
    46b0:	a8 76 00 00 	l.ori r3,r22,0x0
    46b4:	bc 2b 00 00 	l.sfnei r11,0
    46b8:	13 ff f9 99 	l.bf 2d1c <_vfprintf_r+0x2d0>
    46bc:	84 e1 00 7c 	l.lwz r7,124(r1)
    46c0:	84 41 00 78 	l.lwz r2,120(r1)
    46c4:	9d 81 00 a8 	l.addi r12,r1,168
    46c8:	85 01 00 3c 	l.lwz r8,60(r1)
    46cc:	9c 42 00 01 	l.addi r2,r2,1
    46d0:	03 ff fc 1c 	l.j 3740 <_vfprintf_r+0xcf4>
    46d4:	e0 e8 38 00 	l.add r7,r8,r7
    46d8:	a8 78 00 00 	l.ori r3,r24,0x0
    46dc:	04 00 18 be 	l.jal a9d4 <strlen>
    46e0:	d4 01 60 08 	l.sw 8(r1),r12
    46e4:	d4 01 58 28 	l.sw 40(r1),r11
    46e8:	bd 6b 00 00 	l.sfgesi r11,0
    46ec:	a8 6b 00 00 	l.ori r3,r11,0x0
    46f0:	13 ff f9 bc 	l.bf 2de0 <_vfprintf_r+0x394>
    46f4:	85 81 00 08 	l.lwz r12,8(r1)
    46f8:	03 ff f9 ba 	l.j 2de0 <_vfprintf_r+0x394>
    46fc:	9c 60 00 00 	l.addi r3,r0,0
    4700:	9c a1 00 74 	l.addi r5,r1,116
    4704:	a8 9a 00 00 	l.ori r4,r26,0x0
    4708:	04 00 19 3c 	l.jal abf8 <__sprint_r>
    470c:	a8 76 00 00 	l.ori r3,r22,0x0
    4710:	bc 2b 00 00 	l.sfnei r11,0
    4714:	13 ff f9 82 	l.bf 2d1c <_vfprintf_r+0x2d0>
    4718:	84 e1 00 7c 	l.lwz r7,124(r1)
    471c:	03 ff fd 7a 	l.j 3d04 <_vfprintf_r+0x12b8>
    4720:	9d 81 00 a8 	l.addi r12,r1,168
    4724:	03 ff fd 7b 	l.j 3d10 <_vfprintf_r+0x12c4>
    4728:	9e 80 00 00 	l.addi r20,r0,0
    472c:	9c a1 00 74 	l.addi r5,r1,116
    4730:	a8 9a 00 00 	l.ori r4,r26,0x0
    4734:	04 00 19 31 	l.jal abf8 <__sprint_r>
    4738:	a8 76 00 00 	l.ori r3,r22,0x0
    473c:	bc 2b 00 00 	l.sfnei r11,0
    4740:	13 ff f9 77 	l.bf 2d1c <_vfprintf_r+0x2d0>
    4744:	84 41 00 5c 	l.lwz r2,92(r1)
    4748:	85 01 00 3c 	l.lwz r8,60(r1)
    474c:	84 e1 00 7c 	l.lwz r7,124(r1)
    4750:	e0 48 10 02 	l.sub r2,r8,r2
    4754:	03 ff fe 06 	l.j 3f6c <_vfprintf_r+0x1520>
    4758:	9d 81 00 a8 	l.addi r12,r1,168
    475c:	9c 42 00 01 	l.addi r2,r2,1
    4760:	e0 e7 a0 00 	l.add r7,r7,r20
    4764:	d4 0c e0 00 	l.sw 0(r12),r28
    4768:	d4 0c a0 04 	l.sw 4(r12),r20
    476c:	d4 01 38 7c 	l.sw 124(r1),r7
    4770:	bd 42 00 07 	l.sfgtsi r2,7
    4774:	13 ff ff cc 	l.bf 46a4 <_vfprintf_r+0x1c58>
    4778:	d4 01 10 78 	l.sw 120(r1),r2
    477c:	03 ff ff d3 	l.j 46c8 <_vfprintf_r+0x1c7c>
    4780:	9d 8c 00 08 	l.addi r12,r12,8
    4784:	9c 40 ff df 	l.addi r2,r0,-33
    4788:	e3 94 10 03 	l.and r28,r20,r2
    478c:	9c 40 00 06 	l.addi r2,r0,6
    4790:	84 81 00 48 	l.lwz r4,72(r1)
    4794:	a8 ae 01 00 	l.ori r5,r14,0x100
    4798:	bd 64 00 00 	l.sfgesi r4,0
    479c:	0c 00 00 ac 	l.bnf 4a4c <_vfprintf_r+0x2000>
    47a0:	d4 01 28 38 	l.sw 56(r1),r5
    47a4:	bc 1c 00 46 	l.sfeqi r28,70
    47a8:	0c 00 00 fc 	l.bnf 4b98 <_vfprintf_r+0x214c>
    47ac:	84 c1 00 48 	l.lwz r6,72(r1)
    47b0:	84 61 00 4c 	l.lwz r3,76(r1)
    47b4:	a8 86 00 00 	l.ori r4,r6,0x0
    47b8:	a8 a3 00 00 	l.ori r5,r3,0x0
    47bc:	9c c1 00 6c 	l.addi r6,r1,108
    47c0:	9c 61 00 60 	l.addi r3,r1,96
    47c4:	d4 01 30 04 	l.sw 4(r1),r6
    47c8:	d4 01 18 00 	l.sw 0(r1),r3
    47cc:	a8 e2 00 00 	l.ori r7,r2,0x0
    47d0:	9d 01 00 5c 	l.addi r8,r1,92
    47d4:	9c c0 00 03 	l.addi r6,r0,3
    47d8:	a8 76 00 00 	l.ori r3,r22,0x0
    47dc:	d4 01 60 08 	l.sw 8(r1),r12
    47e0:	04 00 03 73 	l.jal 55ac <_dtoa_r>
    47e4:	87 c1 00 48 	l.lwz r30,72(r1)
    47e8:	9c e0 00 00 	l.addi r7,r0,0
    47ec:	ab 0b 00 00 	l.ori r24,r11,0x0
    47f0:	d4 01 38 34 	l.sw 52(r1),r7
    47f4:	85 81 00 08 	l.lwz r12,8(r1)
    47f8:	8c 78 00 00 	l.lbz r3,0(r24)
    47fc:	ac 63 00 30 	l.xori r3,r3,48
    4800:	9c 63 ff ff 	l.addi r3,r3,-1
    4804:	bd 63 00 00 	l.sfgesi r3,0
    4808:	10 00 00 ae 	l.bf 4ac0 <_vfprintf_r+0x2074>
    480c:	19 00 00 01 	l.movhi r8,0x1
    4810:	84 e1 00 4c 	l.lwz r7,76(r1)
    4814:	a8 87 00 00 	l.ori r4,r7,0x0
    4818:	a9 08 24 14 	l.ori r8,r8,0x2414
    481c:	9c e0 00 01 	l.addi r7,r0,1
    4820:	a8 7e 00 00 	l.ori r3,r30,0x0
    4824:	d4 01 38 0c 	l.sw 12(r1),r7
    4828:	84 a8 00 00 	l.lwz r5,0(r8)
    482c:	84 c8 00 04 	l.lwz r6,4(r8)
    4830:	04 00 2f eb 	l.jal 107dc <__eqdf2>
    4834:	d4 01 60 08 	l.sw 8(r1),r12
    4838:	bc 2b 00 00 	l.sfnei r11,0
    483c:	84 e1 00 0c 	l.lwz r7,12(r1)
    4840:	10 00 00 03 	l.bf 484c <_vfprintf_r+0x1e00>
    4844:	85 81 00 08 	l.lwz r12,8(r1)
    4848:	a8 eb 00 00 	l.ori r7,r11,0x0
    484c:	a4 e7 00 ff 	l.andi r7,r7,0xff
    4850:	bc 27 00 00 	l.sfnei r7,0
    4854:	0c 00 00 05 	l.bnf 4868 <_vfprintf_r+0x1e1c>
    4858:	84 61 00 5c 	l.lwz r3,92(r1)
    485c:	9c 60 00 01 	l.addi r3,r0,1
    4860:	e0 63 10 02 	l.sub r3,r3,r2
    4864:	d4 01 18 5c 	l.sw 92(r1),r3
    4868:	e0 63 10 00 	l.add r3,r3,r2
    486c:	03 ff fe 76 	l.j 4244 <_vfprintf_r+0x17f8>
    4870:	e0 f8 18 00 	l.add r7,r24,r3
    4874:	9c a1 00 74 	l.addi r5,r1,116
    4878:	a8 9a 00 00 	l.ori r4,r26,0x0
    487c:	04 00 18 df 	l.jal abf8 <__sprint_r>
    4880:	a8 76 00 00 	l.ori r3,r22,0x0
    4884:	bc 2b 00 00 	l.sfnei r11,0
    4888:	13 ff f9 25 	l.bf 2d1c <_vfprintf_r+0x2d0>
    488c:	84 41 00 5c 	l.lwz r2,92(r1)
    4890:	84 e1 00 7c 	l.lwz r7,124(r1)
    4894:	03 ff fd a1 	l.j 3f18 <_vfprintf_r+0x14cc>
    4898:	9d 81 00 a8 	l.addi r12,r1,168
    489c:	03 ff fa 46 	l.j 31b4 <_vfprintf_r+0x768>
    48a0:	9c a0 00 2d 	l.addi r5,r0,45
    48a4:	bc a2 00 06 	l.sfleui r2,6
    48a8:	10 00 00 04 	l.bf 48b8 <_vfprintf_r+0x1e6c>
    48ac:	bd 62 00 00 	l.sfgesi r2,0
    48b0:	9c 40 00 06 	l.addi r2,r0,6
    48b4:	bd 62 00 00 	l.sfgesi r2,0
    48b8:	0c 00 00 ce 	l.bnf 4bf0 <_vfprintf_r+0x21a4>
    48bc:	d4 01 10 28 	l.sw 40(r1),r2
    48c0:	1b 00 00 01 	l.movhi r24,0x1
    48c4:	d4 01 10 20 	l.sw 32(r1),r2
    48c8:	d4 01 e0 2c 	l.sw 44(r1),r28
    48cc:	03 ff fa 7c 	l.j 32bc <_vfprintf_r+0x870>
    48d0:	ab 18 24 08 	l.ori r24,r24,0x2408
    48d4:	03 ff fd a9 	l.j 3f78 <_vfprintf_r+0x152c>
    48d8:	9e 80 00 00 	l.addi r20,r0,0
    48dc:	03 ff fa 36 	l.j 31b4 <_vfprintf_r+0x768>
    48e0:	d4 01 20 2c 	l.sw 44(r1),r4
    48e4:	bd 54 00 65 	l.sfgtsi r20,101
    48e8:	0c 00 00 f8 	l.bnf 4cc8 <_vfprintf_r+0x227c>
    48ec:	bc 14 00 66 	l.sfeqi r20,102
    48f0:	10 00 00 78 	l.bf 4ad0 <_vfprintf_r+0x2084>
    48f4:	85 01 00 5c 	l.lwz r8,92(r1)
    48f8:	03 ff fe 81 	l.j 42fc <_vfprintf_r+0x18b0>
    48fc:	d4 01 40 40 	l.sw 64(r1),r8
    4900:	9d 00 00 2d 	l.addi r8,r0,45
    4904:	9c a0 00 2d 	l.addi r5,r0,45
    4908:	03 ff fa bf 	l.j 3404 <_vfprintf_r+0x9b8>
    490c:	d8 01 40 59 	l.sb 89(r1),r8
    4910:	d4 01 20 2c 	l.sw 44(r1),r4
    4914:	03 ff fa 28 	l.j 31b4 <_vfprintf_r+0x768>
    4918:	a8 a3 00 00 	l.ori r5,r3,0x0
    491c:	85 c1 00 38 	l.lwz r14,56(r1)
    4920:	d8 01 20 59 	l.sb 89(r1),r4
    4924:	9c a0 00 2d 	l.addi r5,r0,45
    4928:	03 ff f9 36 	l.j 2e00 <_vfprintf_r+0x3b4>
    492c:	9c 40 00 00 	l.addi r2,r0,0
    4930:	9e 94 ff fe 	l.addi r20,r20,-2
    4934:	9c 43 ff ff 	l.addi r2,r3,-1
    4938:	d8 01 a0 64 	l.sb 100(r1),r20
    493c:	bd 62 00 00 	l.sfgesi r2,0
    4940:	0c 00 00 c0 	l.bnf 4c40 <_vfprintf_r+0x21f4>
    4944:	d4 01 10 5c 	l.sw 92(r1),r2
    4948:	9c c0 00 2b 	l.addi r6,r0,43
    494c:	d8 01 30 65 	l.sb 101(r1),r6
    4950:	bd a2 00 09 	l.sflesi r2,9
    4954:	0c 00 00 6c 	l.bnf 4b04 <_vfprintf_r+0x20b8>
    4958:	9f c1 00 73 	l.addi r30,r1,115
    495c:	9c 42 00 30 	l.addi r2,r2,48
    4960:	9d 60 00 30 	l.addi r11,r0,48
    4964:	d8 01 10 67 	l.sb 103(r1),r2
    4968:	d8 01 58 66 	l.sb 102(r1),r11
    496c:	9c 41 00 68 	l.addi r2,r1,104
    4970:	84 61 00 14 	l.lwz r3,20(r1)
    4974:	84 e1 00 3c 	l.lwz r7,60(r1)
    4978:	e0 42 18 02 	l.sub r2,r2,r3
    497c:	bd 47 00 01 	l.sfgtsi r7,1
    4980:	e1 07 10 00 	l.add r8,r7,r2
    4984:	d4 01 10 54 	l.sw 84(r1),r2
    4988:	0c 00 00 bb 	l.bnf 4c74 <_vfprintf_r+0x2228>
    498c:	d4 01 40 28 	l.sw 40(r1),r8
    4990:	84 c1 00 28 	l.lwz r6,40(r1)
    4994:	9c c6 00 01 	l.addi r6,r6,1
    4998:	d4 01 30 28 	l.sw 40(r1),r6
    499c:	bd 66 00 00 	l.sfgesi r6,0
    49a0:	0c 00 00 b3 	l.bnf 4c6c <_vfprintf_r+0x2220>
    49a4:	a8 66 00 00 	l.ori r3,r6,0x0
    49a8:	9c e0 00 00 	l.addi r7,r0,0
    49ac:	03 ff fe 63 	l.j 4338 <_vfprintf_r+0x18ec>
    49b0:	d4 01 38 40 	l.sw 64(r1),r7
    49b4:	d4 01 10 20 	l.sw 32(r1),r2
    49b8:	d4 01 10 28 	l.sw 40(r1),r2
    49bc:	90 a1 00 59 	l.lbs r5,89(r1)
    49c0:	a8 4b 00 00 	l.ori r2,r11,0x0
    49c4:	d4 01 e0 2c 	l.sw 44(r1),r28
    49c8:	03 ff f9 0b 	l.j 2df4 <_vfprintf_r+0x3a8>
    49cc:	d4 01 58 40 	l.sw 64(r1),r11
    49d0:	9c a1 00 74 	l.addi r5,r1,116
    49d4:	a8 9a 00 00 	l.ori r4,r26,0x0
    49d8:	04 00 18 88 	l.jal abf8 <__sprint_r>
    49dc:	a8 76 00 00 	l.ori r3,r22,0x0
    49e0:	bc 2b 00 00 	l.sfnei r11,0
    49e4:	13 ff f8 ce 	l.bf 2d1c <_vfprintf_r+0x2d0>
    49e8:	86 81 00 5c 	l.lwz r20,92(r1)
    49ec:	84 e1 00 7c 	l.lwz r7,124(r1)
    49f0:	84 41 00 78 	l.lwz r2,120(r1)
    49f4:	03 ff fe d0 	l.j 4534 <_vfprintf_r+0x1ae8>
    49f8:	9d 81 00 a8 	l.addi r12,r1,168
    49fc:	0c 00 00 a8 	l.bnf 4c9c <_vfprintf_r+0x2250>
    4a00:	9c 40 00 01 	l.addi r2,r0,1
    4a04:	85 01 00 3c 	l.lwz r8,60(r1)
    4a08:	e0 42 40 00 	l.add r2,r2,r8
    4a0c:	d4 01 10 28 	l.sw 40(r1),r2
    4a10:	bd 62 00 00 	l.sfgesi r2,0
    4a14:	0c 00 00 09 	l.bnf 4a38 <_vfprintf_r+0x1fec>
    4a18:	a8 62 00 00 	l.ori r3,r2,0x0
    4a1c:	03 ff fe 47 	l.j 4338 <_vfprintf_r+0x18ec>
    4a20:	9e 80 00 67 	l.addi r20,r0,103
    4a24:	9c 42 00 01 	l.addi r2,r2,1
    4a28:	d4 01 10 28 	l.sw 40(r1),r2
    4a2c:	bd 62 00 00 	l.sfgesi r2,0
    4a30:	13 ff ff fb 	l.bf 4a1c <_vfprintf_r+0x1fd0>
    4a34:	a8 62 00 00 	l.ori r3,r2,0x0
    4a38:	9c 60 00 00 	l.addi r3,r0,0
    4a3c:	03 ff fe 3f 	l.j 4338 <_vfprintf_r+0x18ec>
    4a40:	9e 80 00 67 	l.addi r20,r0,103
    4a44:	9f 80 00 47 	l.addi r28,r0,71
    4a48:	9c 40 00 01 	l.addi r2,r0,1
    4a4c:	84 c1 00 48 	l.lwz r6,72(r1)
    4a50:	18 e0 80 00 	l.movhi r7,0x8000
    4a54:	bc 1c 00 46 	l.sfeqi r28,70
    4a58:	10 00 00 54 	l.bf 4ba8 <_vfprintf_r+0x215c>
    4a5c:	e3 c6 38 00 	l.add r30,r6,r7
    4a60:	9d 00 00 2d 	l.addi r8,r0,45
    4a64:	d4 01 40 34 	l.sw 52(r1),r8
    4a68:	bc 3c 00 45 	l.sfnei r28,69
    4a6c:	13 ff fd e2 	l.bf 41f4 <_vfprintf_r+0x17a8>
    4a70:	84 61 00 4c 	l.lwz r3,76(r1)
    4a74:	9d a2 00 01 	l.addi r13,r2,1
    4a78:	9d 61 00 6c 	l.addi r11,r1,108
    4a7c:	a8 a3 00 00 	l.ori r5,r3,0x0
    4a80:	9c 61 00 60 	l.addi r3,r1,96
    4a84:	a8 ed 00 00 	l.ori r7,r13,0x0
    4a88:	d4 01 18 00 	l.sw 0(r1),r3
    4a8c:	a8 9e 00 00 	l.ori r4,r30,0x0
    4a90:	d4 01 58 04 	l.sw 4(r1),r11
    4a94:	9d 01 00 5c 	l.addi r8,r1,92
    4a98:	9c c0 00 02 	l.addi r6,r0,2
    4a9c:	a8 76 00 00 	l.ori r3,r22,0x0
    4aa0:	d4 01 60 08 	l.sw 8(r1),r12
    4aa4:	04 00 02 c2 	l.jal 55ac <_dtoa_r>
    4aa8:	d4 01 68 0c 	l.sw 12(r1),r13
    4aac:	85 a1 00 0c 	l.lwz r13,12(r1)
    4ab0:	ab 0b 00 00 	l.ori r24,r11,0x0
    4ab4:	85 81 00 08 	l.lwz r12,8(r1)
    4ab8:	03 ff fd e3 	l.j 4244 <_vfprintf_r+0x17f8>
    4abc:	e0 f8 68 00 	l.add r7,r24,r13
    4ac0:	03 ff ff 6a 	l.j 4868 <_vfprintf_r+0x1e1c>
    4ac4:	84 61 00 5c 	l.lwz r3,92(r1)
    4ac8:	03 ff fd f9 	l.j 42ac <_vfprintf_r+0x1860>
    4acc:	84 61 00 6c 	l.lwz r3,108(r1)
    4ad0:	84 e1 00 5c 	l.lwz r7,92(r1)
    4ad4:	bd a7 00 00 	l.sflesi r7,0
    4ad8:	10 00 00 51 	l.bf 4c1c <_vfprintf_r+0x21d0>
    4adc:	d4 01 38 40 	l.sw 64(r1),r7
    4ae0:	bc 22 00 00 	l.sfnei r2,0
    4ae4:	10 00 00 45 	l.bf 4bf8 <_vfprintf_r+0x21ac>
    4ae8:	a5 ce 00 01 	l.andi r14,r14,0x1
    4aec:	bc 2e 00 00 	l.sfnei r14,0
    4af0:	10 00 00 43 	l.bf 4bfc <_vfprintf_r+0x21b0>
    4af4:	9c 42 00 01 	l.addi r2,r2,1
    4af8:	a8 67 00 00 	l.ori r3,r7,0x0
    4afc:	03 ff fe 0f 	l.j 4338 <_vfprintf_r+0x18ec>
    4b00:	d4 01 38 28 	l.sw 40(r1),r7
    4b04:	d4 01 70 20 	l.sw 32(r1),r14
    4b08:	ab 9e 00 00 	l.ori r28,r30,0x0
    4b0c:	a9 cc 00 00 	l.ori r14,r12,0x0
    4b10:	a8 62 00 00 	l.ori r3,r2,0x0
    4b14:	9c 80 00 0a 	l.addi r4,r0,10
    4b18:	04 00 29 57 	l.jal f074 <__modsi3>
    4b1c:	9f 9c ff ff 	l.addi r28,r28,-1
    4b20:	9d 6b 00 30 	l.addi r11,r11,48
    4b24:	a8 62 00 00 	l.ori r3,r2,0x0
    4b28:	9c 80 00 0a 	l.addi r4,r0,10
    4b2c:	04 00 29 31 	l.jal eff0 <__divsi3>
    4b30:	d8 1c 58 00 	l.sb 0(r28),r11
    4b34:	bd 4b 00 09 	l.sfgtsi r11,9
    4b38:	13 ff ff f6 	l.bf 4b10 <_vfprintf_r+0x20c4>
    4b3c:	a8 4b 00 00 	l.ori r2,r11,0x0
    4b40:	9c 4b 00 30 	l.addi r2,r11,48
    4b44:	9c 7c ff ff 	l.addi r3,r28,-1
    4b48:	b8 42 00 18 	l.slli r2,r2,0x18
    4b4c:	e4 63 f0 00 	l.sfgeu r3,r30
    4b50:	a9 8e 00 00 	l.ori r12,r14,0x0
    4b54:	b8 42 00 98 	l.srai r2,r2,0x18
    4b58:	85 c1 00 20 	l.lwz r14,32(r1)
    4b5c:	10 00 00 6c 	l.bf 4d0c <_vfprintf_r+0x22c0>
    4b60:	db fc 17 ff 	l.sb -1(r28),r2
    4b64:	00 00 00 03 	l.j 4b70 <_vfprintf_r+0x2124>
    4b68:	9c 81 00 66 	l.addi r4,r1,102
    4b6c:	90 43 00 00 	l.lbs r2,0(r3)
    4b70:	9c 63 00 01 	l.addi r3,r3,1
    4b74:	d8 04 10 00 	l.sb 0(r4),r2
    4b78:	e4 23 f0 00 	l.sfne r3,r30
    4b7c:	13 ff ff fc 	l.bf 4b6c <_vfprintf_r+0x2120>
    4b80:	9c 84 00 01 	l.addi r4,r4,1
    4b84:	84 e1 00 18 	l.lwz r7,24(r1)
    4b88:	9d 01 00 66 	l.addi r8,r1,102
    4b8c:	e0 47 e0 02 	l.sub r2,r7,r28
    4b90:	03 ff ff 78 	l.j 4970 <_vfprintf_r+0x1f24>
    4b94:	e0 48 10 00 	l.add r2,r8,r2
    4b98:	9d 00 00 00 	l.addi r8,r0,0
    4b9c:	87 c1 00 48 	l.lwz r30,72(r1)
    4ba0:	03 ff ff b2 	l.j 4a68 <_vfprintf_r+0x201c>
    4ba4:	d4 01 40 34 	l.sw 52(r1),r8
    4ba8:	84 61 00 4c 	l.lwz r3,76(r1)
    4bac:	9d 61 00 6c 	l.addi r11,r1,108
    4bb0:	a8 a3 00 00 	l.ori r5,r3,0x0
    4bb4:	9c 61 00 60 	l.addi r3,r1,96
    4bb8:	d4 01 58 04 	l.sw 4(r1),r11
    4bbc:	d4 01 18 00 	l.sw 0(r1),r3
    4bc0:	9d 60 00 2d 	l.addi r11,r0,45
    4bc4:	a8 9e 00 00 	l.ori r4,r30,0x0
    4bc8:	9d 01 00 5c 	l.addi r8,r1,92
    4bcc:	a8 e2 00 00 	l.ori r7,r2,0x0
    4bd0:	9c c0 00 03 	l.addi r6,r0,3
    4bd4:	a8 76 00 00 	l.ori r3,r22,0x0
    4bd8:	d4 01 60 08 	l.sw 8(r1),r12
    4bdc:	04 00 02 74 	l.jal 55ac <_dtoa_r>
    4be0:	d4 01 58 34 	l.sw 52(r1),r11
    4be4:	85 81 00 08 	l.lwz r12,8(r1)
    4be8:	03 ff ff 04 	l.j 47f8 <_vfprintf_r+0x1dac>
    4bec:	ab 0b 00 00 	l.ori r24,r11,0x0
    4bf0:	03 ff ff 34 	l.j 48c0 <_vfprintf_r+0x1e74>
    4bf4:	9c 40 00 00 	l.addi r2,r0,0
    4bf8:	9c 42 00 01 	l.addi r2,r2,1
    4bfc:	85 01 00 40 	l.lwz r8,64(r1)
    4c00:	e0 48 10 00 	l.add r2,r8,r2
    4c04:	d4 01 10 28 	l.sw 40(r1),r2
    4c08:	bd 62 00 00 	l.sfgesi r2,0
    4c0c:	13 ff fd cb 	l.bf 4338 <_vfprintf_r+0x18ec>
    4c10:	a8 62 00 00 	l.ori r3,r2,0x0
    4c14:	03 ff fd c9 	l.j 4338 <_vfprintf_r+0x18ec>
    4c18:	9c 60 00 00 	l.addi r3,r0,0
    4c1c:	bc 22 00 00 	l.sfnei r2,0
    4c20:	10 00 00 0c 	l.bf 4c50 <_vfprintf_r+0x2204>
    4c24:	a5 ce 00 01 	l.andi r14,r14,0x1
    4c28:	bc 0e 00 00 	l.sfeqi r14,0
    4c2c:	0c 00 00 0a 	l.bnf 4c54 <_vfprintf_r+0x2208>
    4c30:	9c 42 00 02 	l.addi r2,r2,2
    4c34:	9c 60 00 01 	l.addi r3,r0,1
    4c38:	03 ff fd c0 	l.j 4338 <_vfprintf_r+0x18ec>
    4c3c:	d4 01 18 28 	l.sw 40(r1),r3
    4c40:	9c a0 00 2d 	l.addi r5,r0,45
    4c44:	e0 40 10 02 	l.sub r2,r0,r2
    4c48:	03 ff ff 42 	l.j 4950 <_vfprintf_r+0x1f04>
    4c4c:	d8 01 28 65 	l.sb 101(r1),r5
    4c50:	9c 42 00 02 	l.addi r2,r2,2
    4c54:	d4 01 10 28 	l.sw 40(r1),r2
    4c58:	bd 62 00 00 	l.sfgesi r2,0
    4c5c:	13 ff fd b7 	l.bf 4338 <_vfprintf_r+0x18ec>
    4c60:	a8 62 00 00 	l.ori r3,r2,0x0
    4c64:	03 ff fd b5 	l.j 4338 <_vfprintf_r+0x18ec>
    4c68:	9c 60 00 00 	l.addi r3,r0,0
    4c6c:	03 ff ff 4f 	l.j 49a8 <_vfprintf_r+0x1f5c>
    4c70:	9c 60 00 00 	l.addi r3,r0,0
    4c74:	a5 ce 00 01 	l.andi r14,r14,0x1
    4c78:	bc 2e 00 00 	l.sfnei r14,0
    4c7c:	13 ff ff 46 	l.bf 4994 <_vfprintf_r+0x1f48>
    4c80:	84 c1 00 28 	l.lwz r6,40(r1)
    4c84:	bd 68 00 00 	l.sfgesi r8,0
    4c88:	0c 00 00 2c 	l.bnf 4d38 <_vfprintf_r+0x22ec>
    4c8c:	a8 68 00 00 	l.ori r3,r8,0x0
    4c90:	9c 40 00 00 	l.addi r2,r0,0
    4c94:	03 ff fd a9 	l.j 4338 <_vfprintf_r+0x18ec>
    4c98:	d4 01 10 40 	l.sw 64(r1),r2
    4c9c:	9c 40 00 02 	l.addi r2,r0,2
    4ca0:	03 ff ff 59 	l.j 4a04 <_vfprintf_r+0x1fb8>
    4ca4:	e0 42 38 02 	l.sub r2,r2,r7
    4ca8:	85 61 00 2c 	l.lwz r11,44(r1)
    4cac:	84 4b 00 00 	l.lwz r2,0(r11)
    4cb0:	9c 6b 00 04 	l.addi r3,r11,4
    4cb4:	bd 82 00 00 	l.sfltsi r2,0
    4cb8:	0f ff f7 dd 	l.bnf 2c2c <_vfprintf_r+0x1e0>
    4cbc:	d4 01 18 2c 	l.sw 44(r1),r3
    4cc0:	03 ff f7 db 	l.j 2c2c <_vfprintf_r+0x1e0>
    4cc4:	9c 40 ff ff 	l.addi r2,r0,-1
    4cc8:	03 ff ff 1b 	l.j 4934 <_vfprintf_r+0x1ee8>
    4ccc:	84 61 00 5c 	l.lwz r3,92(r1)
    4cd0:	03 ff f8 8e 	l.j 2f08 <_vfprintf_r+0x4bc>
    4cd4:	d8 01 38 59 	l.sb 89(r1),r7
    4cd8:	03 ff fd 95 	l.j 432c <_vfprintf_r+0x18e0>
    4cdc:	a8 6e 00 00 	l.ori r3,r14,0x0
    4ce0:	03 ff fa 0a 	l.j 3508 <_vfprintf_r+0xabc>
    4ce4:	d8 01 38 59 	l.sb 89(r1),r7
    4ce8:	03 ff f9 db 	l.j 3454 <_vfprintf_r+0xa08>
    4cec:	d8 01 38 59 	l.sb 89(r1),r7
    4cf0:	03 ff f8 f3 	l.j 30bc <_vfprintf_r+0x670>
    4cf4:	d8 01 38 59 	l.sb 89(r1),r7
    4cf8:	03 ff f9 3d 	l.j 31ec <_vfprintf_r+0x7a0>
    4cfc:	d8 01 38 59 	l.sb 89(r1),r7
    4d00:	d8 01 38 59 	l.sb 89(r1),r7
    4d04:	03 ff f9 11 	l.j 3148 <_vfprintf_r+0x6fc>
    4d08:	a9 ce 00 10 	l.ori r14,r14,0x10
    4d0c:	03 ff ff 19 	l.j 4970 <_vfprintf_r+0x1f24>
    4d10:	9c 41 00 66 	l.addi r2,r1,102
    4d14:	a9 a2 00 00 	l.ori r13,r2,0x0
    4d18:	03 ff fd 4b 	l.j 4244 <_vfprintf_r+0x17f8>
    4d1c:	e0 f8 68 00 	l.add r7,r24,r13
    4d20:	03 ff f9 de 	l.j 3498 <_vfprintf_r+0xa4c>
    4d24:	d8 01 38 59 	l.sb 89(r1),r7
    4d28:	03 ff f9 71 	l.j 32ec <_vfprintf_r+0x8a0>
    4d2c:	d8 01 38 59 	l.sb 89(r1),r7
    4d30:	03 ff f9 8d 	l.j 3364 <_vfprintf_r+0x918>
    4d34:	d8 01 38 59 	l.sb 89(r1),r7
    4d38:	03 ff ff d6 	l.j 4c90 <_vfprintf_r+0x2244>
    4d3c:	a8 6e 00 00 	l.ori r3,r14,0x0

00004d40 <vfprintf>:
    4d40:	d7 e1 4f fc 	l.sw -4(r1),r9
    4d44:	d7 e1 0f f8 	l.sw -8(r1),r1
    4d48:	9c 21 ff ec 	l.addi r1,r1,-20
    4d4c:	d4 01 18 08 	l.sw 8(r1),r3
    4d50:	d4 01 20 04 	l.sw 4(r1),r4
    4d54:	04 00 0c c4 	l.jal 8064 <__getreent>
    4d58:	d4 01 28 00 	l.sw 0(r1),r5
    4d5c:	84 a1 00 00 	l.lwz r5,0(r1)
    4d60:	84 81 00 04 	l.lwz r4,4(r1)
    4d64:	84 61 00 08 	l.lwz r3,8(r1)
    4d68:	a8 c5 00 00 	l.ori r6,r5,0x0
    4d6c:	a8 a4 00 00 	l.ori r5,r4,0x0
    4d70:	a8 83 00 00 	l.ori r4,r3,0x0
    4d74:	07 ff f7 36 	l.jal 2a4c <_vfprintf_r>
    4d78:	a8 6b 00 00 	l.ori r3,r11,0x0
    4d7c:	9c 21 00 14 	l.addi r1,r1,20
    4d80:	85 21 ff fc 	l.lwz r9,-4(r1)
    4d84:	44 00 48 00 	l.jr r9
    4d88:	84 21 ff f8 	l.lwz r1,-8(r1)

00004d8c <__sbprintf>:
    4d8c:	94 e4 00 0c 	l.lhz r7,12(r4)
    4d90:	d7 e1 17 f0 	l.sw -16(r1),r2
    4d94:	d7 e1 77 f4 	l.sw -12(r1),r14
    4d98:	a8 44 00 00 	l.ori r2,r4,0x0
    4d9c:	85 c4 00 64 	l.lwz r14,100(r4)
    4da0:	9c 80 ff fd 	l.addi r4,r0,-3
    4da4:	d7 e1 97 f8 	l.sw -8(r1),r18
    4da8:	e0 e7 20 03 	l.and r7,r7,r4
    4dac:	d7 e1 4f fc 	l.sw -4(r1),r9
    4db0:	d7 e1 0f ec 	l.sw -20(r1),r1
    4db4:	9c 21 fb 84 	l.addi r1,r1,-1148
    4db8:	9d 00 04 00 	l.addi r8,r0,1024
    4dbc:	dc 01 38 0c 	l.sh 12(r1),r7
    4dc0:	94 e2 00 0e 	l.lhz r7,14(r2)
    4dc4:	9d 61 00 68 	l.addi r11,r1,104
    4dc8:	85 a2 00 1c 	l.lwz r13,28(r2)
    4dcc:	85 82 00 24 	l.lwz r12,36(r2)
    4dd0:	dc 01 38 0e 	l.sh 14(r1),r7
    4dd4:	a8 81 00 00 	l.ori r4,r1,0x0
    4dd8:	9c e0 00 00 	l.addi r7,r0,0
    4ddc:	d4 01 70 64 	l.sw 100(r1),r14
    4de0:	aa 43 00 00 	l.ori r18,r3,0x0
    4de4:	d4 01 68 1c 	l.sw 28(r1),r13
    4de8:	d4 01 60 24 	l.sw 36(r1),r12
    4dec:	d4 01 58 00 	l.sw 0(r1),r11
    4df0:	d4 01 58 10 	l.sw 16(r1),r11
    4df4:	d4 01 40 08 	l.sw 8(r1),r8
    4df8:	d4 01 40 14 	l.sw 20(r1),r8
    4dfc:	07 ff f7 14 	l.jal 2a4c <_vfprintf_r>
    4e00:	d4 01 38 18 	l.sw 24(r1),r7
    4e04:	bd 8b 00 00 	l.sfltsi r11,0
    4e08:	10 00 00 08 	l.bf 4e28 <__sbprintf+0x9c>
    4e0c:	a9 cb 00 00 	l.ori r14,r11,0x0
    4e10:	a8 81 00 00 	l.ori r4,r1,0x0
    4e14:	04 00 09 9a 	l.jal 747c <_fflush_r>
    4e18:	a8 72 00 00 	l.ori r3,r18,0x0
    4e1c:	bc 0b 00 00 	l.sfeqi r11,0
    4e20:	0c 00 00 12 	l.bnf 4e68 <__sbprintf+0xdc>
    4e24:	15 00 00 00 	l.nop 0x0
    4e28:	94 61 00 0c 	l.lhz r3,12(r1)
    4e2c:	a4 63 00 40 	l.andi r3,r3,0x40
    4e30:	bc 03 00 00 	l.sfeqi r3,0
    4e34:	10 00 00 05 	l.bf 4e48 <__sbprintf+0xbc>
    4e38:	15 00 00 00 	l.nop 0x0
    4e3c:	94 62 00 0c 	l.lhz r3,12(r2)
    4e40:	a8 63 00 40 	l.ori r3,r3,0x40
    4e44:	dc 02 18 0c 	l.sh 12(r2),r3
    4e48:	9c 21 04 7c 	l.addi r1,r1,1148
    4e4c:	a9 6e 00 00 	l.ori r11,r14,0x0
    4e50:	85 21 ff fc 	l.lwz r9,-4(r1)
    4e54:	84 21 ff ec 	l.lwz r1,-20(r1)
    4e58:	84 41 ff f0 	l.lwz r2,-16(r1)
    4e5c:	85 c1 ff f4 	l.lwz r14,-12(r1)
    4e60:	44 00 48 00 	l.jr r9
    4e64:	86 41 ff f8 	l.lwz r18,-8(r1)
    4e68:	03 ff ff f0 	l.j 4e28 <__sbprintf+0x9c>
    4e6c:	9d c0 ff ff 	l.addi r14,r0,-1

00004e70 <__swsetup_r>:
    4e70:	d7 e1 17 f4 	l.sw -12(r1),r2
    4e74:	d7 e1 77 f8 	l.sw -8(r1),r14
    4e78:	d7 e1 4f fc 	l.sw -4(r1),r9
    4e7c:	d7 e1 0f f0 	l.sw -16(r1),r1
    4e80:	9c 21 ff f0 	l.addi r1,r1,-16
    4e84:	a9 c3 00 00 	l.ori r14,r3,0x0
    4e88:	04 00 0c 77 	l.jal 8064 <__getreent>
    4e8c:	a8 44 00 00 	l.ori r2,r4,0x0
    4e90:	bc 0b 00 00 	l.sfeqi r11,0
    4e94:	10 00 00 06 	l.bf 4eac <__swsetup_r+0x3c>
    4e98:	15 00 00 00 	l.nop 0x0
    4e9c:	84 6b 00 38 	l.lwz r3,56(r11)
    4ea0:	bc 23 00 00 	l.sfnei r3,0
    4ea4:	0c 00 00 44 	l.bnf 4fb4 <__swsetup_r+0x144>
    4ea8:	15 00 00 00 	l.nop 0x0
    4eac:	98 a2 00 0c 	l.lhs r5,12(r2)
    4eb0:	a4 65 ff ff 	l.andi r3,r5,0xffff
    4eb4:	a4 83 00 08 	l.andi r4,r3,0x8
    4eb8:	bc 04 00 00 	l.sfeqi r4,0
    4ebc:	10 00 00 18 	l.bf 4f1c <__swsetup_r+0xac>
    4ec0:	a4 83 00 10 	l.andi r4,r3,0x10
    4ec4:	84 c2 00 10 	l.lwz r6,16(r2)
    4ec8:	bc 26 00 00 	l.sfnei r6,0
    4ecc:	0c 00 00 21 	l.bnf 4f50 <__swsetup_r+0xe0>
    4ed0:	a4 83 02 80 	l.andi r4,r3,0x280
    4ed4:	a4 83 00 01 	l.andi r4,r3,0x1
    4ed8:	bc 04 00 00 	l.sfeqi r4,0
    4edc:	10 00 00 26 	l.bf 4f74 <__swsetup_r+0x104>
    4ee0:	a4 63 00 02 	l.andi r3,r3,0x2
    4ee4:	84 62 00 14 	l.lwz r3,20(r2)
    4ee8:	9c 80 00 00 	l.addi r4,r0,0
    4eec:	e0 60 18 02 	l.sub r3,r0,r3
    4ef0:	d4 02 20 08 	l.sw 8(r2),r4
    4ef4:	d4 02 18 18 	l.sw 24(r2),r3
    4ef8:	bc 26 00 00 	l.sfnei r6,0
    4efc:	0c 00 00 26 	l.bnf 4f94 <__swsetup_r+0x124>
    4f00:	9d 60 00 00 	l.addi r11,r0,0
    4f04:	9c 21 00 10 	l.addi r1,r1,16
    4f08:	85 21 ff fc 	l.lwz r9,-4(r1)
    4f0c:	84 21 ff f0 	l.lwz r1,-16(r1)
    4f10:	84 41 ff f4 	l.lwz r2,-12(r1)
    4f14:	44 00 48 00 	l.jr r9
    4f18:	85 c1 ff f8 	l.lwz r14,-8(r1)
    4f1c:	bc 24 00 00 	l.sfnei r4,0
    4f20:	0c 00 00 3d 	l.bnf 5014 <__swsetup_r+0x1a4>
    4f24:	a4 63 00 04 	l.andi r3,r3,0x4
    4f28:	bc 23 00 00 	l.sfnei r3,0
    4f2c:	10 00 00 26 	l.bf 4fc4 <__swsetup_r+0x154>
    4f30:	15 00 00 00 	l.nop 0x0
    4f34:	84 c2 00 10 	l.lwz r6,16(r2)
    4f38:	a8 65 00 08 	l.ori r3,r5,0x8
    4f3c:	bc 26 00 00 	l.sfnei r6,0
    4f40:	dc 02 18 0c 	l.sh 12(r2),r3
    4f44:	13 ff ff e4 	l.bf 4ed4 <__swsetup_r+0x64>
    4f48:	a4 63 ff ff 	l.andi r3,r3,0xffff
    4f4c:	a4 83 02 80 	l.andi r4,r3,0x280
    4f50:	bc 04 02 00 	l.sfeqi r4,512
    4f54:	13 ff ff e1 	l.bf 4ed8 <__swsetup_r+0x68>
    4f58:	a4 83 00 01 	l.andi r4,r3,0x1
    4f5c:	a8 6e 00 00 	l.ori r3,r14,0x0
    4f60:	04 00 0c a4 	l.jal 81f0 <__smakebuf_r>
    4f64:	a8 82 00 00 	l.ori r4,r2,0x0
    4f68:	94 62 00 0c 	l.lhz r3,12(r2)
    4f6c:	03 ff ff da 	l.j 4ed4 <__swsetup_r+0x64>
    4f70:	84 c2 00 10 	l.lwz r6,16(r2)
    4f74:	bc 23 00 00 	l.sfnei r3,0
    4f78:	10 00 00 03 	l.bf 4f84 <__swsetup_r+0x114>
    4f7c:	15 00 00 00 	l.nop 0x0
    4f80:	84 82 00 14 	l.lwz r4,20(r2)
    4f84:	d4 02 20 08 	l.sw 8(r2),r4
    4f88:	bc 26 00 00 	l.sfnei r6,0
    4f8c:	13 ff ff de 	l.bf 4f04 <__swsetup_r+0x94>
    4f90:	9d 60 00 00 	l.addi r11,r0,0
    4f94:	98 62 00 0c 	l.lhs r3,12(r2)
    4f98:	a4 83 00 80 	l.andi r4,r3,0x80
    4f9c:	e4 04 58 00 	l.sfeq r4,r11
    4fa0:	13 ff ff d9 	l.bf 4f04 <__swsetup_r+0x94>
    4fa4:	a8 63 00 40 	l.ori r3,r3,0x40
    4fa8:	9d 60 ff ff 	l.addi r11,r0,-1
    4fac:	03 ff ff d6 	l.j 4f04 <__swsetup_r+0x94>
    4fb0:	dc 02 18 0c 	l.sh 12(r2),r3
    4fb4:	04 00 0a 61 	l.jal 7938 <__sinit>
    4fb8:	a8 6b 00 00 	l.ori r3,r11,0x0
    4fbc:	03 ff ff bd 	l.j 4eb0 <__swsetup_r+0x40>
    4fc0:	98 a2 00 0c 	l.lhs r5,12(r2)
    4fc4:	84 82 00 30 	l.lwz r4,48(r2)
    4fc8:	bc 04 00 00 	l.sfeqi r4,0
    4fcc:	10 00 00 0b 	l.bf 4ff8 <__swsetup_r+0x188>
    4fd0:	15 00 00 00 	l.nop 0x0
    4fd4:	9c 62 00 40 	l.addi r3,r2,64
    4fd8:	e4 04 18 00 	l.sfeq r4,r3
    4fdc:	10 00 00 05 	l.bf 4ff0 <__swsetup_r+0x180>
    4fe0:	15 00 00 00 	l.nop 0x0
    4fe4:	04 00 0a e0 	l.jal 7b64 <_free_r>
    4fe8:	a8 6e 00 00 	l.ori r3,r14,0x0
    4fec:	98 a2 00 0c 	l.lhs r5,12(r2)
    4ff0:	9c 60 00 00 	l.addi r3,r0,0
    4ff4:	d4 02 18 30 	l.sw 48(r2),r3
    4ff8:	84 c2 00 10 	l.lwz r6,16(r2)
    4ffc:	9c 80 ff db 	l.addi r4,r0,-37
    5000:	9c 60 00 00 	l.addi r3,r0,0
    5004:	e0 a5 20 03 	l.and r5,r5,r4
    5008:	d4 02 18 04 	l.sw 4(r2),r3
    500c:	03 ff ff cb 	l.j 4f38 <__swsetup_r+0xc8>
    5010:	d4 02 30 00 	l.sw 0(r2),r6
    5014:	9c 60 00 09 	l.addi r3,r0,9
    5018:	a8 a5 00 40 	l.ori r5,r5,0x40
    501c:	d4 0e 18 00 	l.sw 0(r14),r3
    5020:	dc 02 28 0c 	l.sh 12(r2),r5
    5024:	03 ff ff b8 	l.j 4f04 <__swsetup_r+0x94>
    5028:	9d 60 ff ff 	l.addi r11,r0,-1

0000502c <__register_exitproc>:
    502c:	d7 e1 17 f4 	l.sw -12(r1),r2
    5030:	18 40 00 01 	l.movhi r2,0x1
    5034:	d7 e1 77 f8 	l.sw -8(r1),r14
    5038:	a8 42 23 d0 	l.ori r2,r2,0x23d0
    503c:	d7 e1 4f fc 	l.sw -4(r1),r9
    5040:	84 42 00 00 	l.lwz r2,0(r2)
    5044:	d7 e1 0f f0 	l.sw -16(r1),r1
    5048:	84 e2 01 48 	l.lwz r7,328(r2)
    504c:	9c 21 ff e4 	l.addi r1,r1,-28
    5050:	bc 27 00 00 	l.sfnei r7,0
    5054:	0c 00 00 3d 	l.bnf 5148 <__register_exitproc+0x11c>
    5058:	a9 c3 00 00 	l.ori r14,r3,0x0
    505c:	84 67 00 04 	l.lwz r3,4(r7)
    5060:	bd 43 00 1f 	l.sfgtsi r3,31
    5064:	10 00 00 10 	l.bf 50a4 <__register_exitproc+0x78>
    5068:	bc 2e 00 00 	l.sfnei r14,0
    506c:	10 00 00 28 	l.bf 510c <__register_exitproc+0xe0>
    5070:	9d 63 00 01 	l.addi r11,r3,1
    5074:	9c 63 00 02 	l.addi r3,r3,2
    5078:	d4 07 58 04 	l.sw 4(r7),r11
    507c:	b8 63 00 02 	l.slli r3,r3,0x2
    5080:	9d 60 00 00 	l.addi r11,r0,0
    5084:	e0 67 18 00 	l.add r3,r7,r3
    5088:	d4 03 20 00 	l.sw 0(r3),r4
    508c:	9c 21 00 1c 	l.addi r1,r1,28
    5090:	85 21 ff fc 	l.lwz r9,-4(r1)
    5094:	84 21 ff f0 	l.lwz r1,-16(r1)
    5098:	84 41 ff f4 	l.lwz r2,-12(r1)
    509c:	44 00 48 00 	l.jr r9
    50a0:	85 c1 ff f8 	l.lwz r14,-8(r1)
    50a4:	18 60 00 00 	l.movhi r3,0x0
    50a8:	a8 63 00 00 	l.ori r3,r3,0x0
    50ac:	bc 23 00 00 	l.sfnei r3,0
    50b0:	0c 00 00 29 	l.bnf 5154 <__register_exitproc+0x128>
    50b4:	9c 60 01 90 	l.addi r3,r0,400
    50b8:	d4 01 20 08 	l.sw 8(r1),r4
    50bc:	d4 01 28 04 	l.sw 4(r1),r5
    50c0:	07 ff eb d0 	l.jal 0 <_or1k_reset-0x100>
    50c4:	d4 01 30 00 	l.sw 0(r1),r6
    50c8:	bc 0b 00 00 	l.sfeqi r11,0
    50cc:	a8 eb 00 00 	l.ori r7,r11,0x0
    50d0:	84 81 00 08 	l.lwz r4,8(r1)
    50d4:	84 a1 00 04 	l.lwz r5,4(r1)
    50d8:	10 00 00 1f 	l.bf 5154 <__register_exitproc+0x128>
    50dc:	84 c1 00 00 	l.lwz r6,0(r1)
    50e0:	84 62 01 48 	l.lwz r3,328(r2)
    50e4:	9d 00 00 00 	l.addi r8,r0,0
    50e8:	d4 0b 18 00 	l.sw 0(r11),r3
    50ec:	d4 0b 40 04 	l.sw 4(r11),r8
    50f0:	d4 02 59 48 	l.sw 328(r2),r11
    50f4:	d4 0b 41 88 	l.sw 392(r11),r8
    50f8:	d4 0b 41 8c 	l.sw 396(r11),r8
    50fc:	bc 2e 00 00 	l.sfnei r14,0
    5100:	9d 60 00 01 	l.addi r11,r0,1
    5104:	0f ff ff dc 	l.bnf 5074 <__register_exitproc+0x48>
    5108:	a8 68 00 00 	l.ori r3,r8,0x0
    510c:	b9 03 00 02 	l.slli r8,r3,0x2
    5110:	9c 40 00 01 	l.addi r2,r0,1
    5114:	bc 2e 00 02 	l.sfnei r14,2
    5118:	e1 07 40 00 	l.add r8,r7,r8
    511c:	e0 42 18 08 	l.sll r2,r2,r3
    5120:	d4 08 28 88 	l.sw 136(r8),r5
    5124:	84 a7 01 88 	l.lwz r5,392(r7)
    5128:	e0 a5 10 04 	l.or r5,r5,r2
    512c:	d4 07 29 88 	l.sw 392(r7),r5
    5130:	13 ff ff d1 	l.bf 5074 <__register_exitproc+0x48>
    5134:	d4 08 31 08 	l.sw 264(r8),r6
    5138:	84 a7 01 8c 	l.lwz r5,396(r7)
    513c:	e0 45 10 04 	l.or r2,r5,r2
    5140:	03 ff ff cd 	l.j 5074 <__register_exitproc+0x48>
    5144:	d4 07 11 8c 	l.sw 396(r7),r2
    5148:	9c e2 01 4c 	l.addi r7,r2,332
    514c:	03 ff ff c4 	l.j 505c <__register_exitproc+0x30>
    5150:	d4 02 39 48 	l.sw 328(r2),r7
    5154:	03 ff ff ce 	l.j 508c <__register_exitproc+0x60>
    5158:	9d 60 ff ff 	l.addi r11,r0,-1

0000515c <__call_exitprocs>:
    515c:	d7 e1 17 d8 	l.sw -40(r1),r2
    5160:	18 40 00 01 	l.movhi r2,0x1
    5164:	d7 e1 97 e0 	l.sw -32(r1),r18
    5168:	a8 42 23 d0 	l.ori r2,r2,0x23d0
    516c:	d7 e1 a7 e4 	l.sw -28(r1),r20
    5170:	d7 e1 b7 e8 	l.sw -24(r1),r22
    5174:	d7 e1 e7 f4 	l.sw -12(r1),r28
    5178:	84 42 00 00 	l.lwz r2,0(r2)
    517c:	d7 e1 4f fc 	l.sw -4(r1),r9
    5180:	d7 e1 0f d4 	l.sw -44(r1),r1
    5184:	d7 e1 77 dc 	l.sw -36(r1),r14
    5188:	d7 e1 c7 ec 	l.sw -20(r1),r24
    518c:	d7 e1 d7 f0 	l.sw -16(r1),r26
    5190:	d7 e1 f7 f8 	l.sw -8(r1),r30
    5194:	9c 21 ff cc 	l.addi r1,r1,-52
    5198:	1a c0 00 00 	l.movhi r22,0x0
    519c:	d4 01 10 00 	l.sw 0(r1),r2
    51a0:	9c 42 01 48 	l.addi r2,r2,328
    51a4:	aa 83 00 00 	l.ori r20,r3,0x0
    51a8:	ab 84 00 00 	l.ori r28,r4,0x0
    51ac:	d4 01 10 04 	l.sw 4(r1),r2
    51b0:	9e 40 00 01 	l.addi r18,r0,1
    51b4:	aa d6 00 00 	l.ori r22,r22,0x0
    51b8:	84 41 00 00 	l.lwz r2,0(r1)
    51bc:	87 42 01 48 	l.lwz r26,328(r2)
    51c0:	bc 3a 00 00 	l.sfnei r26,0
    51c4:	0c 00 00 48 	l.bnf 52e4 <__call_exitprocs+0x188>
    51c8:	87 01 00 04 	l.lwz r24,4(r1)
    51cc:	84 7a 00 04 	l.lwz r3,4(r26)
    51d0:	9c 43 ff ff 	l.addi r2,r3,-1
    51d4:	bd 62 00 00 	l.sfgesi r2,0
    51d8:	0c 00 00 34 	l.bnf 52a8 <__call_exitprocs+0x14c>
    51dc:	bc 16 00 00 	l.sfeqi r22,0
    51e0:	9d c3 00 01 	l.addi r14,r3,1
    51e4:	b9 ce 00 02 	l.slli r14,r14,0x2
    51e8:	00 00 00 0a 	l.j 5210 <__call_exitprocs+0xb4>
    51ec:	e1 da 70 00 	l.add r14,r26,r14
    51f0:	84 6e 01 00 	l.lwz r3,256(r14)
    51f4:	e4 1c 18 00 	l.sfeq r28,r3
    51f8:	10 00 00 09 	l.bf 521c <__call_exitprocs+0xc0>
    51fc:	15 00 00 00 	l.nop 0x0
    5200:	9c 42 ff ff 	l.addi r2,r2,-1
    5204:	bc 22 ff ff 	l.sfnei r2,-1
    5208:	0c 00 00 27 	l.bnf 52a4 <__call_exitprocs+0x148>
    520c:	9d ce ff fc 	l.addi r14,r14,-4
    5210:	bc 1c 00 00 	l.sfeqi r28,0
    5214:	0f ff ff f7 	l.bnf 51f0 <__call_exitprocs+0x94>
    5218:	15 00 00 00 	l.nop 0x0
    521c:	84 7a 00 04 	l.lwz r3,4(r26)
    5220:	9c 63 ff ff 	l.addi r3,r3,-1
    5224:	e4 23 10 00 	l.sfne r3,r2
    5228:	0c 00 00 40 	l.bnf 5328 <__call_exitprocs+0x1cc>
    522c:	84 ce 00 00 	l.lwz r6,0(r14)
    5230:	9c 60 00 00 	l.addi r3,r0,0
    5234:	d4 0e 18 00 	l.sw 0(r14),r3
    5238:	bc 06 00 00 	l.sfeqi r6,0
    523c:	13 ff ff f1 	l.bf 5200 <__call_exitprocs+0xa4>
    5240:	e0 92 10 08 	l.sll r4,r18,r2
    5244:	84 7a 01 88 	l.lwz r3,392(r26)
    5248:	e0 64 18 03 	l.and r3,r4,r3
    524c:	bc 03 00 00 	l.sfeqi r3,0
    5250:	10 00 00 32 	l.bf 5318 <__call_exitprocs+0x1bc>
    5254:	87 da 00 04 	l.lwz r30,4(r26)
    5258:	84 7a 01 8c 	l.lwz r3,396(r26)
    525c:	e0 84 18 03 	l.and r4,r4,r3
    5260:	bc 24 00 00 	l.sfnei r4,0
    5264:	10 00 00 33 	l.bf 5330 <__call_exitprocs+0x1d4>
    5268:	15 00 00 00 	l.nop 0x0
    526c:	84 8e 00 80 	l.lwz r4,128(r14)
    5270:	48 00 30 00 	l.jalr r6
    5274:	a8 74 00 00 	l.ori r3,r20,0x0
    5278:	84 7a 00 04 	l.lwz r3,4(r26)
    527c:	e4 23 f0 00 	l.sfne r3,r30
    5280:	13 ff ff ce 	l.bf 51b8 <__call_exitprocs+0x5c>
    5284:	15 00 00 00 	l.nop 0x0
    5288:	84 78 00 00 	l.lwz r3,0(r24)
    528c:	e4 23 d0 00 	l.sfne r3,r26
    5290:	13 ff ff ca 	l.bf 51b8 <__call_exitprocs+0x5c>
    5294:	9c 42 ff ff 	l.addi r2,r2,-1
    5298:	bc 22 ff ff 	l.sfnei r2,-1
    529c:	13 ff ff dd 	l.bf 5210 <__call_exitprocs+0xb4>
    52a0:	9d ce ff fc 	l.addi r14,r14,-4
    52a4:	bc 16 00 00 	l.sfeqi r22,0
    52a8:	10 00 00 0f 	l.bf 52e4 <__call_exitprocs+0x188>
    52ac:	15 00 00 00 	l.nop 0x0
    52b0:	84 5a 00 04 	l.lwz r2,4(r26)
    52b4:	bc 22 00 00 	l.sfnei r2,0
    52b8:	10 00 00 22 	l.bf 5340 <__call_exitprocs+0x1e4>
    52bc:	84 5a 00 00 	l.lwz r2,0(r26)
    52c0:	bc 02 00 00 	l.sfeqi r2,0
    52c4:	10 00 00 1f 	l.bf 5340 <__call_exitprocs+0x1e4>
    52c8:	a8 7a 00 00 	l.ori r3,r26,0x0
    52cc:	07 ff eb 4d 	l.jal 0 <_or1k_reset-0x100>
    52d0:	d4 18 10 00 	l.sw 0(r24),r2
    52d4:	87 58 00 00 	l.lwz r26,0(r24)
    52d8:	bc 3a 00 00 	l.sfnei r26,0
    52dc:	13 ff ff bc 	l.bf 51cc <__call_exitprocs+0x70>
    52e0:	15 00 00 00 	l.nop 0x0
    52e4:	9c 21 00 34 	l.addi r1,r1,52
    52e8:	85 21 ff fc 	l.lwz r9,-4(r1)
    52ec:	84 21 ff d4 	l.lwz r1,-44(r1)
    52f0:	84 41 ff d8 	l.lwz r2,-40(r1)
    52f4:	85 c1 ff dc 	l.lwz r14,-36(r1)
    52f8:	86 41 ff e0 	l.lwz r18,-32(r1)
    52fc:	86 81 ff e4 	l.lwz r20,-28(r1)
    5300:	86 c1 ff e8 	l.lwz r22,-24(r1)
    5304:	87 01 ff ec 	l.lwz r24,-20(r1)
    5308:	87 41 ff f0 	l.lwz r26,-16(r1)
    530c:	87 81 ff f4 	l.lwz r28,-12(r1)
    5310:	44 00 48 00 	l.jr r9
    5314:	87 c1 ff f8 	l.lwz r30,-8(r1)
    5318:	48 00 30 00 	l.jalr r6
    531c:	15 00 00 00 	l.nop 0x0
    5320:	03 ff ff d7 	l.j 527c <__call_exitprocs+0x120>
    5324:	84 7a 00 04 	l.lwz r3,4(r26)
    5328:	03 ff ff c4 	l.j 5238 <__call_exitprocs+0xdc>
    532c:	d4 1a 10 04 	l.sw 4(r26),r2
    5330:	48 00 30 00 	l.jalr r6
    5334:	84 6e 00 80 	l.lwz r3,128(r14)
    5338:	03 ff ff d1 	l.j 527c <__call_exitprocs+0x120>
    533c:	84 7a 00 04 	l.lwz r3,4(r26)
    5340:	ab 1a 00 00 	l.ori r24,r26,0x0
    5344:	03 ff ff e5 	l.j 52d8 <__call_exitprocs+0x17c>
    5348:	ab 42 00 00 	l.ori r26,r2,0x0

0000534c <quorem>:
    534c:	d7 e1 97 e0 	l.sw -32(r1),r18
    5350:	d7 e1 d7 f0 	l.sw -16(r1),r26
    5354:	86 44 00 10 	l.lwz r18,16(r4)
    5358:	ab 43 00 00 	l.ori r26,r3,0x0
    535c:	84 63 00 10 	l.lwz r3,16(r3)
    5360:	d7 e1 17 d8 	l.sw -40(r1),r2
    5364:	d7 e1 f7 f8 	l.sw -8(r1),r30
    5368:	d7 e1 4f fc 	l.sw -4(r1),r9
    536c:	d7 e1 0f d4 	l.sw -44(r1),r1
    5370:	d7 e1 77 dc 	l.sw -36(r1),r14
    5374:	d7 e1 a7 e4 	l.sw -28(r1),r20
    5378:	d7 e1 b7 e8 	l.sw -24(r1),r22
    537c:	d7 e1 c7 ec 	l.sw -20(r1),r24
    5380:	d7 e1 e7 f4 	l.sw -12(r1),r28
    5384:	e5 52 18 00 	l.sfgts r18,r3
    5388:	9c 21 ff d4 	l.addi r1,r1,-44
    538c:	ab c4 00 00 	l.ori r30,r4,0x0
    5390:	10 00 00 79 	l.bf 5574 <quorem+0x228>
    5394:	9c 40 00 00 	l.addi r2,r0,0
    5398:	9e 52 ff ff 	l.addi r18,r18,-1
    539c:	9d c4 00 14 	l.addi r14,r4,20
    53a0:	bb 92 00 02 	l.slli r28,r18,0x2
    53a4:	9f 1a 00 14 	l.addi r24,r26,20
    53a8:	e2 8e e0 00 	l.add r20,r14,r28
    53ac:	e3 98 e0 00 	l.add r28,r24,r28
    53b0:	84 94 00 00 	l.lwz r4,0(r20)
    53b4:	84 7c 00 00 	l.lwz r3,0(r28)
    53b8:	04 00 26 cf 	l.jal eef4 <__udivsi3>
    53bc:	9c 84 00 01 	l.addi r4,r4,1
    53c0:	e4 0b 10 00 	l.sfeq r11,r2
    53c4:	10 00 00 37 	l.bf 54a0 <quorem+0x154>
    53c8:	aa cb 00 00 	l.ori r22,r11,0x0
    53cc:	a9 62 00 00 	l.ori r11,r2,0x0
    53d0:	a9 18 00 00 	l.ori r8,r24,0x0
    53d4:	a8 ee 00 00 	l.ori r7,r14,0x0
    53d8:	a8 82 00 00 	l.ori r4,r2,0x0
    53dc:	84 c7 00 00 	l.lwz r6,0(r7)
    53e0:	84 48 00 00 	l.lwz r2,0(r8)
    53e4:	a4 a6 ff ff 	l.andi r5,r6,0xffff
    53e8:	b8 c6 00 50 	l.srli r6,r6,0x10
    53ec:	e0 a5 b3 06 	l.mul r5,r5,r22
    53f0:	e0 c6 b3 06 	l.mul r6,r6,r22
    53f4:	e0 a5 58 00 	l.add r5,r5,r11
    53f8:	a4 62 ff ff 	l.andi r3,r2,0xffff
    53fc:	b9 65 00 50 	l.srli r11,r5,0x10
    5400:	e0 83 20 00 	l.add r4,r3,r4
    5404:	a4 65 ff ff 	l.andi r3,r5,0xffff
    5408:	e0 a6 58 00 	l.add r5,r6,r11
    540c:	e0 64 18 02 	l.sub r3,r4,r3
    5410:	b8 42 00 50 	l.srli r2,r2,0x10
    5414:	a4 c5 ff ff 	l.andi r6,r5,0xffff
    5418:	b8 83 00 90 	l.srai r4,r3,0x10
    541c:	e0 42 30 02 	l.sub r2,r2,r6
    5420:	a4 63 ff ff 	l.andi r3,r3,0xffff
    5424:	e0 42 20 00 	l.add r2,r2,r4
    5428:	9c e7 00 04 	l.addi r7,r7,4
    542c:	b8 82 00 10 	l.slli r4,r2,0x10
    5430:	e4 74 38 00 	l.sfgeu r20,r7
    5434:	b9 65 00 50 	l.srli r11,r5,0x10
    5438:	e0 64 18 04 	l.or r3,r4,r3
    543c:	9d 08 00 04 	l.addi r8,r8,4
    5440:	d7 e8 1f fc 	l.sw -4(r8),r3
    5444:	13 ff ff e6 	l.bf 53dc <quorem+0x90>
    5448:	b8 82 00 90 	l.srai r4,r2,0x10
    544c:	84 5c 00 00 	l.lwz r2,0(r28)
    5450:	bc 22 00 00 	l.sfnei r2,0
    5454:	10 00 00 13 	l.bf 54a0 <quorem+0x154>
    5458:	9c 5c ff fc 	l.addi r2,r28,-4
    545c:	e4 78 10 00 	l.sfgeu r24,r2
    5460:	10 00 00 0f 	l.bf 549c <quorem+0x150>
    5464:	15 00 00 00 	l.nop 0x0
    5468:	84 7c ff fc 	l.lwz r3,-4(r28)
    546c:	bc 23 00 00 	l.sfnei r3,0
    5470:	0c 00 00 08 	l.bnf 5490 <quorem+0x144>
    5474:	9c 42 ff fc 	l.addi r2,r2,-4
    5478:	00 00 00 0a 	l.j 54a0 <quorem+0x154>
    547c:	d4 1a 90 10 	l.sw 16(r26),r18
    5480:	84 62 00 00 	l.lwz r3,0(r2)
    5484:	bc 03 00 00 	l.sfeqi r3,0
    5488:	0c 00 00 05 	l.bnf 549c <quorem+0x150>
    548c:	9c 42 ff fc 	l.addi r2,r2,-4
    5490:	e4 78 10 00 	l.sfgeu r24,r2
    5494:	0f ff ff fb 	l.bnf 5480 <quorem+0x134>
    5498:	9e 52 ff ff 	l.addi r18,r18,-1
    549c:	d4 1a 90 10 	l.sw 16(r26),r18
    54a0:	a8 9e 00 00 	l.ori r4,r30,0x0
    54a4:	04 00 12 2c 	l.jal 9d54 <__mcmp>
    54a8:	a8 7a 00 00 	l.ori r3,r26,0x0
    54ac:	bd 8b 00 00 	l.sfltsi r11,0
    54b0:	10 00 00 30 	l.bf 5570 <quorem+0x224>
    54b4:	a8 d8 00 00 	l.ori r6,r24,0x0
    54b8:	9e d6 00 01 	l.addi r22,r22,1
    54bc:	9c 80 00 00 	l.addi r4,r0,0
    54c0:	84 a6 00 00 	l.lwz r5,0(r6)
    54c4:	84 4e 00 00 	l.lwz r2,0(r14)
    54c8:	a4 65 ff ff 	l.andi r3,r5,0xffff
    54cc:	a4 e2 ff ff 	l.andi r7,r2,0xffff
    54d0:	e0 83 20 00 	l.add r4,r3,r4
    54d4:	b8 42 00 50 	l.srli r2,r2,0x10
    54d8:	e0 64 38 02 	l.sub r3,r4,r7
    54dc:	b8 a5 00 50 	l.srli r5,r5,0x10
    54e0:	b8 83 00 90 	l.srai r4,r3,0x10
    54e4:	a4 63 ff ff 	l.andi r3,r3,0xffff
    54e8:	e0 a5 10 02 	l.sub r5,r5,r2
    54ec:	9d ce 00 04 	l.addi r14,r14,4
    54f0:	e0 a5 20 00 	l.add r5,r5,r4
    54f4:	9c c6 00 04 	l.addi r6,r6,4
    54f8:	b8 45 00 10 	l.slli r2,r5,0x10
    54fc:	e4 74 70 00 	l.sfgeu r20,r14
    5500:	b8 85 00 90 	l.srai r4,r5,0x10
    5504:	e0 62 18 04 	l.or r3,r2,r3
    5508:	13 ff ff ee 	l.bf 54c0 <quorem+0x174>
    550c:	d7 e6 1f fc 	l.sw -4(r6),r3
    5510:	b8 72 00 02 	l.slli r3,r18,0x2
    5514:	e0 78 18 00 	l.add r3,r24,r3
    5518:	84 43 00 00 	l.lwz r2,0(r3)
    551c:	bc 22 00 00 	l.sfnei r2,0
    5520:	10 00 00 15 	l.bf 5574 <quorem+0x228>
    5524:	a8 56 00 00 	l.ori r2,r22,0x0
    5528:	9c 43 ff fc 	l.addi r2,r3,-4
    552c:	e4 78 10 00 	l.sfgeu r24,r2
    5530:	10 00 00 0f 	l.bf 556c <quorem+0x220>
    5534:	15 00 00 00 	l.nop 0x0
    5538:	84 63 ff fc 	l.lwz r3,-4(r3)
    553c:	bc 23 00 00 	l.sfnei r3,0
    5540:	0c 00 00 08 	l.bnf 5560 <quorem+0x214>
    5544:	9c 42 ff fc 	l.addi r2,r2,-4
    5548:	00 00 00 0a 	l.j 5570 <quorem+0x224>
    554c:	d4 1a 90 10 	l.sw 16(r26),r18
    5550:	84 62 00 00 	l.lwz r3,0(r2)
    5554:	bc 03 00 00 	l.sfeqi r3,0
    5558:	0c 00 00 05 	l.bnf 556c <quorem+0x220>
    555c:	9c 42 ff fc 	l.addi r2,r2,-4
    5560:	e4 78 10 00 	l.sfgeu r24,r2
    5564:	0f ff ff fb 	l.bnf 5550 <quorem+0x204>
    5568:	9e 52 ff ff 	l.addi r18,r18,-1
    556c:	d4 1a 90 10 	l.sw 16(r26),r18
    5570:	a8 56 00 00 	l.ori r2,r22,0x0
    5574:	9c 21 00 2c 	l.addi r1,r1,44
    5578:	a9 62 00 00 	l.ori r11,r2,0x0
    557c:	85 21 ff fc 	l.lwz r9,-4(r1)
    5580:	84 21 ff d4 	l.lwz r1,-44(r1)
    5584:	84 41 ff d8 	l.lwz r2,-40(r1)
    5588:	85 c1 ff dc 	l.lwz r14,-36(r1)
    558c:	86 41 ff e0 	l.lwz r18,-32(r1)
    5590:	86 81 ff e4 	l.lwz r20,-28(r1)
    5594:	86 c1 ff e8 	l.lwz r22,-24(r1)
    5598:	87 01 ff ec 	l.lwz r24,-20(r1)
    559c:	87 41 ff f0 	l.lwz r26,-16(r1)
    55a0:	87 81 ff f4 	l.lwz r28,-12(r1)
    55a4:	44 00 48 00 	l.jr r9
    55a8:	87 c1 ff f8 	l.lwz r30,-8(r1)

000055ac <_dtoa_r>:
    55ac:	d7 e1 17 d8 	l.sw -40(r1),r2
    55b0:	d7 e1 77 dc 	l.sw -36(r1),r14
    55b4:	d7 e1 97 e0 	l.sw -32(r1),r18
    55b8:	d7 e1 a7 e4 	l.sw -28(r1),r20
    55bc:	d7 e1 b7 e8 	l.sw -24(r1),r22
    55c0:	d7 e1 d7 f0 	l.sw -16(r1),r26
    55c4:	d7 e1 4f fc 	l.sw -4(r1),r9
    55c8:	d7 e1 0f d4 	l.sw -44(r1),r1
    55cc:	d7 e1 c7 ec 	l.sw -20(r1),r24
    55d0:	d7 e1 e7 f4 	l.sw -12(r1),r28
    55d4:	d7 e1 f7 f8 	l.sw -8(r1),r30
    55d8:	85 63 00 40 	l.lwz r11,64(r3)
    55dc:	9c 21 ff 58 	l.addi r1,r1,-168
    55e0:	bc 0b 00 00 	l.sfeqi r11,0
    55e4:	d4 01 30 08 	l.sw 8(r1),r6
    55e8:	d4 01 38 1c 	l.sw 28(r1),r7
    55ec:	d4 01 40 18 	l.sw 24(r1),r8
    55f0:	ab 43 00 00 	l.ori r26,r3,0x0
    55f4:	aa c4 00 00 	l.ori r22,r4,0x0
    55f8:	a8 45 00 00 	l.ori r2,r5,0x0
    55fc:	86 41 00 a8 	l.lwz r18,168(r1)
    5600:	aa 84 00 00 	l.ori r20,r4,0x0
    5604:	10 00 00 0b 	l.bf 5630 <_dtoa_r+0x84>
    5608:	a9 c5 00 00 	l.ori r14,r5,0x0
    560c:	84 a3 00 44 	l.lwz r5,68(r3)
    5610:	9c 80 00 01 	l.addi r4,r0,1
    5614:	d4 0b 28 04 	l.sw 4(r11),r5
    5618:	e0 a4 28 08 	l.sll r5,r4,r5
    561c:	a8 8b 00 00 	l.ori r4,r11,0x0
    5620:	04 00 0f 5a 	l.jal 9388 <_Bfree>
    5624:	d4 0b 28 08 	l.sw 8(r11),r5
    5628:	9c 60 00 00 	l.addi r3,r0,0
    562c:	d4 1a 18 40 	l.sw 64(r26),r3
    5630:	bd 76 00 00 	l.sfgesi r22,0
    5634:	0c 00 00 47 	l.bnf 5750 <_dtoa_r+0x1a4>
    5638:	ab 96 00 00 	l.ori r28,r22,0x0
    563c:	9c a0 00 00 	l.addi r5,r0,0
    5640:	d4 12 28 00 	l.sw 0(r18),r5
    5644:	18 c0 7f f0 	l.movhi r6,0x7ff0
    5648:	e0 7c 30 03 	l.and r3,r28,r6
    564c:	e4 23 30 00 	l.sfne r3,r6
    5650:	0c 00 00 25 	l.bnf 56e4 <_dtoa_r+0x138>
    5654:	1b 00 00 01 	l.movhi r24,0x1
    5658:	a9 94 00 00 	l.ori r12,r20,0x0
    565c:	a9 a2 00 00 	l.ori r13,r2,0x0
    5660:	ab 18 25 b0 	l.ori r24,r24,0x25b0
    5664:	e0 6c 00 04 	l.or r3,r12,r0
    5668:	e0 8d 00 04 	l.or r4,r13,r0
    566c:	84 b8 00 00 	l.lwz r5,0(r24)
    5670:	84 d8 00 04 	l.lwz r6,4(r24)
    5674:	04 00 2c 5a 	l.jal 107dc <__eqdf2>
    5678:	15 00 00 00 	l.nop 0x0
    567c:	bc 0b 00 00 	l.sfeqi r11,0
    5680:	0c 00 00 3b 	l.bnf 576c <_dtoa_r+0x1c0>
    5684:	84 61 00 18 	l.lwz r3,24(r1)
    5688:	84 41 00 ac 	l.lwz r2,172(r1)
    568c:	bc 02 00 00 	l.sfeqi r2,0
    5690:	9c 40 00 01 	l.addi r2,r0,1
    5694:	19 60 00 01 	l.movhi r11,0x1
    5698:	d4 03 10 00 	l.sw 0(r3),r2
    569c:	10 00 00 05 	l.bf 56b0 <_dtoa_r+0x104>
    56a0:	a9 6b 24 0f 	l.ori r11,r11,0x240f
    56a4:	e0 4b 10 00 	l.add r2,r11,r2
    56a8:	84 81 00 ac 	l.lwz r4,172(r1)
    56ac:	d4 04 10 00 	l.sw 0(r4),r2
    56b0:	9c 21 00 a8 	l.addi r1,r1,168
    56b4:	85 21 ff fc 	l.lwz r9,-4(r1)
    56b8:	84 21 ff d4 	l.lwz r1,-44(r1)
    56bc:	84 41 ff d8 	l.lwz r2,-40(r1)
    56c0:	85 c1 ff dc 	l.lwz r14,-36(r1)
    56c4:	86 41 ff e0 	l.lwz r18,-32(r1)
    56c8:	86 81 ff e4 	l.lwz r20,-28(r1)
    56cc:	86 c1 ff e8 	l.lwz r22,-24(r1)
    56d0:	87 01 ff ec 	l.lwz r24,-20(r1)
    56d4:	87 41 ff f0 	l.lwz r26,-16(r1)
    56d8:	87 81 ff f4 	l.lwz r28,-12(r1)
    56dc:	44 00 48 00 	l.jr r9
    56e0:	87 c1 ff f8 	l.lwz r30,-8(r1)
    56e4:	bc 22 00 00 	l.sfnei r2,0
    56e8:	84 61 00 18 	l.lwz r3,24(r1)
    56ec:	9c 40 27 0f 	l.addi r2,r0,9999
    56f0:	19 60 00 01 	l.movhi r11,0x1
    56f4:	d4 03 10 00 	l.sw 0(r3),r2
    56f8:	10 00 00 0a 	l.bf 5720 <_dtoa_r+0x174>
    56fc:	a9 6b 25 a9 	l.ori r11,r11,0x25a9
    5700:	18 80 00 0f 	l.movhi r4,0xf
    5704:	a8 84 ff ff 	l.ori r4,r4,0xffff
    5708:	e3 9c 20 03 	l.and r28,r28,r4
    570c:	bc 3c 00 00 	l.sfnei r28,0
    5710:	10 00 00 05 	l.bf 5724 <_dtoa_r+0x178>
    5714:	84 41 00 ac 	l.lwz r2,172(r1)
    5718:	19 60 00 01 	l.movhi r11,0x1
    571c:	a9 6b 25 a0 	l.ori r11,r11,0x25a0
    5720:	84 41 00 ac 	l.lwz r2,172(r1)
    5724:	bc 02 00 00 	l.sfeqi r2,0
    5728:	13 ff ff e2 	l.bf 56b0 <_dtoa_r+0x104>
    572c:	15 00 00 00 	l.nop 0x0
    5730:	90 4b 00 03 	l.lbs r2,3(r11)
    5734:	bc 02 00 00 	l.sfeqi r2,0
    5738:	0c 00 00 03 	l.bnf 5744 <_dtoa_r+0x198>
    573c:	9c 4b 00 08 	l.addi r2,r11,8
    5740:	9c 4b 00 03 	l.addi r2,r11,3
    5744:	84 61 00 ac 	l.lwz r3,172(r1)
    5748:	03 ff ff da 	l.j 56b0 <_dtoa_r+0x104>
    574c:	d4 03 10 00 	l.sw 0(r3),r2
    5750:	18 80 7f ff 	l.movhi r4,0x7fff
    5754:	9c 60 00 01 	l.addi r3,r0,1
    5758:	a8 84 ff ff 	l.ori r4,r4,0xffff
    575c:	d4 12 18 00 	l.sw 0(r18),r3
    5760:	e2 96 20 03 	l.and r20,r22,r4
    5764:	03 ff ff b8 	l.j 5644 <_dtoa_r+0x98>
    5768:	ab 94 00 00 	l.ori r28,r20,0x0
    576c:	a8 94 00 00 	l.ori r4,r20,0x0
    5770:	9c e1 00 74 	l.addi r7,r1,116
    5774:	a8 a2 00 00 	l.ori r5,r2,0x0
    5778:	9c c1 00 78 	l.addi r6,r1,120
    577c:	a8 7a 00 00 	l.ori r3,r26,0x0
    5780:	ba 5c 00 54 	l.srli r18,r28,0x14
    5784:	04 00 12 a6 	l.jal a21c <__d2b>
    5788:	d4 01 10 00 	l.sw 0(r1),r2
    578c:	bc 12 00 00 	l.sfeqi r18,0
    5790:	d4 01 58 3c 	l.sw 60(r1),r11
    5794:	0c 00 01 ad 	l.bnf 5e48 <_dtoa_r+0x89c>
    5798:	85 81 00 00 	l.lwz r12,0(r1)
    579c:	86 c1 00 74 	l.lwz r22,116(r1)
    57a0:	86 41 00 78 	l.lwz r18,120(r1)
    57a4:	e2 56 90 00 	l.add r18,r22,r18
    57a8:	9c 92 04 32 	l.addi r4,r18,1074
    57ac:	bd a4 00 20 	l.sflesi r4,32
    57b0:	10 00 02 c7 	l.bf 62cc <_dtoa_r+0xd20>
    57b4:	9c 60 00 20 	l.addi r3,r0,32
    57b8:	9c 60 00 40 	l.addi r3,r0,64
    57bc:	9c b2 04 12 	l.addi r5,r18,1042
    57c0:	e0 63 20 02 	l.sub r3,r3,r4
    57c4:	e0 a2 28 48 	l.srl r5,r2,r5
    57c8:	e3 9c 18 08 	l.sll r28,r28,r3
    57cc:	e0 65 e0 04 	l.or r3,r5,r28
    57d0:	04 00 32 6c 	l.jal 12180 <__floatunsidf>
    57d4:	9e 52 ff ff 	l.addi r18,r18,-1
    57d8:	18 80 fe 10 	l.movhi r4,0xfe10
    57dc:	9c a0 00 01 	l.addi r5,r0,1
    57e0:	e1 6b 20 00 	l.add r11,r11,r4
    57e4:	d4 01 28 5c 	l.sw 92(r1),r5
    57e8:	18 60 00 01 	l.movhi r3,0x1
    57ec:	ab ac 00 00 	l.ori r29,r12,0x0
    57f0:	ab 8b 00 00 	l.ori r28,r11,0x0
    57f4:	a8 63 25 b8 	l.ori r3,r3,0x25b8
    57f8:	84 a3 00 00 	l.lwz r5,0(r3)
    57fc:	84 c3 00 04 	l.lwz r6,4(r3)
    5800:	e0 7c 00 04 	l.or r3,r28,r0
    5804:	e0 9d 00 04 	l.or r4,r29,r0
    5808:	04 00 2f 14 	l.jal 11458 <__subdf3>
    580c:	15 00 00 00 	l.nop 0x0
    5810:	18 a0 00 01 	l.movhi r5,0x1
    5814:	e0 6b 00 04 	l.or r3,r11,r0
    5818:	e0 8c 00 04 	l.or r4,r12,r0
    581c:	a8 a5 25 c0 	l.ori r5,r5,0x25c0
    5820:	84 c5 00 04 	l.lwz r6,4(r5)
    5824:	84 a5 00 00 	l.lwz r5,0(r5)
    5828:	04 00 2d 1a 	l.jal 10c90 <__muldf3>
    582c:	15 00 00 00 	l.nop 0x0
    5830:	18 a0 00 01 	l.movhi r5,0x1
    5834:	e0 6b 00 04 	l.or r3,r11,r0
    5838:	e0 8c 00 04 	l.or r4,r12,r0
    583c:	a8 a5 25 c8 	l.ori r5,r5,0x25c8
    5840:	84 c5 00 04 	l.lwz r6,4(r5)
    5844:	84 a5 00 00 	l.lwz r5,0(r5)
    5848:	04 00 26 22 	l.jal f0d0 <__adddf3>
    584c:	15 00 00 00 	l.nop 0x0
    5850:	a8 72 00 00 	l.ori r3,r18,0x0
    5854:	e3 8b 00 04 	l.or r28,r11,r0
    5858:	e3 ac 00 04 	l.or r29,r12,r0
    585c:	04 00 32 0d 	l.jal 12090 <__floatsidf>
    5860:	d4 01 e8 04 	l.sw 4(r1),r29
    5864:	18 a0 00 01 	l.movhi r5,0x1
    5868:	e0 6b 00 04 	l.or r3,r11,r0
    586c:	e0 8c 00 04 	l.or r4,r12,r0
    5870:	a8 a5 25 d0 	l.ori r5,r5,0x25d0
    5874:	84 c5 00 04 	l.lwz r6,4(r5)
    5878:	84 a5 00 00 	l.lwz r5,0(r5)
    587c:	04 00 2d 05 	l.jal 10c90 <__muldf3>
    5880:	15 00 00 00 	l.nop 0x0
    5884:	87 a1 00 04 	l.lwz r29,4(r1)
    5888:	e0 ab 00 04 	l.or r5,r11,r0
    588c:	e0 cc 00 04 	l.or r6,r12,r0
    5890:	e0 7c 00 04 	l.or r3,r28,r0
    5894:	e0 9d 00 04 	l.or r4,r29,r0
    5898:	04 00 26 0e 	l.jal f0d0 <__adddf3>
    589c:	15 00 00 00 	l.nop 0x0
    58a0:	e0 6b 00 04 	l.or r3,r11,r0
    58a4:	e0 8c 00 04 	l.or r4,r12,r0
    58a8:	d4 01 58 10 	l.sw 16(r1),r11
    58ac:	d4 01 60 14 	l.sw 20(r1),r12
    58b0:	04 00 31 cd 	l.jal 11fe4 <__fixdfsi>
    58b4:	15 00 00 00 	l.nop 0x0
    58b8:	84 b8 00 00 	l.lwz r5,0(r24)
    58bc:	84 d8 00 04 	l.lwz r6,4(r24)
    58c0:	84 61 00 10 	l.lwz r3,16(r1)
    58c4:	84 81 00 14 	l.lwz r4,20(r1)
    58c8:	04 00 2c 7b 	l.jal 10ab4 <__ledf2>
    58cc:	ab cb 00 00 	l.ori r30,r11,0x0
    58d0:	bd 8b 00 00 	l.sfltsi r11,0
    58d4:	10 00 02 6f 	l.bf 6290 <_dtoa_r+0xce4>
    58d8:	9c c0 00 01 	l.addi r6,r0,1
    58dc:	bc 5e 00 16 	l.sfgtui r30,22
    58e0:	10 00 00 14 	l.bf 5930 <_dtoa_r+0x384>
    58e4:	d4 01 30 44 	l.sw 68(r1),r6
    58e8:	18 a0 00 01 	l.movhi r5,0x1
    58ec:	b8 7e 00 03 	l.slli r3,r30,0x3
    58f0:	a8 a5 26 74 	l.ori r5,r5,0x2674
    58f4:	a8 e2 00 00 	l.ori r7,r2,0x0
    58f8:	e0 63 28 00 	l.add r3,r3,r5
    58fc:	a8 d4 00 00 	l.ori r6,r20,0x0
    5900:	84 83 00 04 	l.lwz r4,4(r3)
    5904:	84 63 00 00 	l.lwz r3,0(r3)
    5908:	e0 a6 00 04 	l.or r5,r6,r0
    590c:	e0 c7 00 04 	l.or r6,r7,r0
    5910:	04 00 2b f6 	l.jal 108e8 <__gedf2>
    5914:	15 00 00 00 	l.nop 0x0
    5918:	bd 4b 00 00 	l.sfgtsi r11,0
    591c:	0c 00 02 6a 	l.bnf 62c4 <_dtoa_r+0xd18>
    5920:	9c 60 00 00 	l.addi r3,r0,0
    5924:	9c c0 00 00 	l.addi r6,r0,0
    5928:	9f de ff ff 	l.addi r30,r30,-1
    592c:	d4 01 30 44 	l.sw 68(r1),r6
    5930:	e2 56 90 02 	l.sub r18,r22,r18
    5934:	9c 80 00 00 	l.addi r4,r0,0
    5938:	9e 52 ff ff 	l.addi r18,r18,-1
    593c:	d4 01 20 38 	l.sw 56(r1),r4
    5940:	e5 72 20 00 	l.sfges r18,r4
    5944:	0c 00 02 4f 	l.bnf 6280 <_dtoa_r+0xcd4>
    5948:	d4 01 90 10 	l.sw 16(r1),r18
    594c:	bd 9e 00 00 	l.sfltsi r30,0
    5950:	10 00 02 44 	l.bf 6260 <_dtoa_r+0xcb4>
    5954:	84 61 00 10 	l.lwz r3,16(r1)
    5958:	9c 80 00 00 	l.addi r4,r0,0
    595c:	e0 63 f0 00 	l.add r3,r3,r30
    5960:	d4 01 f0 4c 	l.sw 76(r1),r30
    5964:	d4 01 18 10 	l.sw 16(r1),r3
    5968:	d4 01 20 40 	l.sw 64(r1),r4
    596c:	84 81 00 08 	l.lwz r4,8(r1)
    5970:	bc 44 00 09 	l.sfgtui r4,9
    5974:	10 00 01 3f 	l.bf 5e70 <_dtoa_r+0x8c4>
    5978:	9c a0 ff ff 	l.addi r5,r0,-1
    597c:	bd a4 00 05 	l.sflesi r4,5
    5980:	10 00 00 06 	l.bf 5998 <_dtoa_r+0x3ec>
    5984:	9c 60 00 01 	l.addi r3,r0,1
    5988:	9c 84 ff fc 	l.addi r4,r4,-4
    598c:	9c 60 00 00 	l.addi r3,r0,0
    5990:	d4 01 20 08 	l.sw 8(r1),r4
    5994:	84 81 00 08 	l.lwz r4,8(r1)
    5998:	bc 04 00 03 	l.sfeqi r4,3
    599c:	10 00 04 24 	l.bf 6a2c <_dtoa_r+0x1480>
    59a0:	bd 44 00 03 	l.sfgtsi r4,3
    59a4:	0c 00 03 d4 	l.bnf 68f4 <_dtoa_r+0x1348>
    59a8:	84 c1 00 08 	l.lwz r6,8(r1)
    59ac:	bc 06 00 04 	l.sfeqi r6,4
    59b0:	10 00 02 71 	l.bf 6374 <_dtoa_r+0xdc8>
    59b4:	9c 80 00 01 	l.addi r4,r0,1
    59b8:	bc 06 00 05 	l.sfeqi r6,5
    59bc:	0c 00 03 d2 	l.bnf 6904 <_dtoa_r+0x1358>
    59c0:	d4 01 20 48 	l.sw 72(r1),r4
    59c4:	84 a1 00 1c 	l.lwz r5,28(r1)
    59c8:	e0 be 28 00 	l.add r5,r30,r5
    59cc:	9c c5 00 01 	l.addi r6,r5,1
    59d0:	d4 01 28 50 	l.sw 80(r1),r5
    59d4:	bd 46 00 00 	l.sfgtsi r6,0
    59d8:	0c 00 05 19 	l.bnf 6e3c <_dtoa_r+0x1890>
    59dc:	d4 01 30 28 	l.sw 40(r1),r6
    59e0:	84 81 00 28 	l.lwz r4,40(r1)
    59e4:	9e 40 00 01 	l.addi r18,r0,1
    59e8:	bc a4 00 0e 	l.sfleui r4,14
    59ec:	10 00 00 03 	l.bf 59f8 <_dtoa_r+0x44c>
    59f0:	a8 e4 00 00 	l.ori r7,r4,0x0
    59f4:	9e 40 00 00 	l.addi r18,r0,0
    59f8:	e2 43 90 03 	l.and r18,r3,r18
    59fc:	9c a0 00 00 	l.addi r5,r0,0
    5a00:	bc a7 00 17 	l.sfleui r7,23
    5a04:	d4 1a 28 44 	l.sw 68(r26),r5
    5a08:	10 00 00 0b 	l.bf 5a34 <_dtoa_r+0x488>
    5a0c:	a8 85 00 00 	l.ori r4,r5,0x0
    5a10:	9c a0 00 01 	l.addi r5,r0,1
    5a14:	9c 60 00 04 	l.addi r3,r0,4
    5a18:	e0 63 18 00 	l.add r3,r3,r3
    5a1c:	a8 85 00 00 	l.ori r4,r5,0x0
    5a20:	9c c3 00 14 	l.addi r6,r3,20
    5a24:	e4 a6 38 00 	l.sfleu r6,r7
    5a28:	13 ff ff fc 	l.bf 5a18 <_dtoa_r+0x46c>
    5a2c:	9c a5 00 01 	l.addi r5,r5,1
    5a30:	d4 1a 20 44 	l.sw 68(r26),r4
    5a34:	04 00 0e 26 	l.jal 92cc <_Balloc>
    5a38:	a8 7a 00 00 	l.ori r3,r26,0x0
    5a3c:	bc 12 00 00 	l.sfeqi r18,0
    5a40:	d4 01 58 34 	l.sw 52(r1),r11
    5a44:	10 00 01 1a 	l.bf 5eac <_dtoa_r+0x900>
    5a48:	d4 1a 58 40 	l.sw 64(r26),r11
    5a4c:	bd be 00 00 	l.sflesi r30,0
    5a50:	d4 01 a0 60 	l.sw 96(r1),r20
    5a54:	10 00 03 cc 	l.bf 6984 <_dtoa_r+0x13d8>
    5a58:	d4 01 10 64 	l.sw 100(r1),r2
    5a5c:	a4 7e 00 0f 	l.andi r3,r30,0xf
    5a60:	ba 5e 00 84 	l.srai r18,r30,0x4
    5a64:	18 c0 00 01 	l.movhi r6,0x1
    5a68:	b8 63 00 03 	l.slli r3,r3,0x3
    5a6c:	a4 92 00 10 	l.andi r4,r18,0x10
    5a70:	a8 c6 26 74 	l.ori r6,r6,0x2674
    5a74:	bc 04 00 00 	l.sfeqi r4,0
    5a78:	e0 63 30 00 	l.add r3,r3,r6
    5a7c:	86 c3 00 00 	l.lwz r22,0(r3)
    5a80:	86 e3 00 04 	l.lwz r23,4(r3)
    5a84:	10 00 03 97 	l.bf 68e0 <_dtoa_r+0x1334>
    5a88:	a8 94 00 00 	l.ori r4,r20,0x0
    5a8c:	a9 a2 00 00 	l.ori r13,r2,0x0
    5a90:	18 40 00 01 	l.movhi r2,0x1
    5a94:	a9 94 00 00 	l.ori r12,r20,0x0
    5a98:	a8 42 26 4c 	l.ori r2,r2,0x264c
    5a9c:	84 a2 00 20 	l.lwz r5,32(r2)
    5aa0:	84 c2 00 24 	l.lwz r6,36(r2)
    5aa4:	e0 6c 00 04 	l.or r3,r12,r0
    5aa8:	e0 8d 00 04 	l.or r4,r13,r0
    5aac:	04 00 28 54 	l.jal fbfc <__divdf3>
    5ab0:	d4 01 b8 04 	l.sw 4(r1),r23
    5ab4:	a6 52 00 0f 	l.andi r18,r18,0xf
    5ab8:	9d c0 00 03 	l.addi r14,r0,3
    5abc:	86 e1 00 04 	l.lwz r23,4(r1)
    5ac0:	d4 01 58 20 	l.sw 32(r1),r11
    5ac4:	d4 01 60 24 	l.sw 36(r1),r12
    5ac8:	bc 12 00 00 	l.sfeqi r18,0
    5acc:	10 00 00 13 	l.bf 5b18 <_dtoa_r+0x56c>
    5ad0:	15 00 00 00 	l.nop 0x0
    5ad4:	1a 80 00 01 	l.movhi r20,0x1
    5ad8:	aa 94 26 4c 	l.ori r20,r20,0x264c
    5adc:	a4 52 00 01 	l.andi r2,r18,0x1
    5ae0:	e0 76 00 04 	l.or r3,r22,r0
    5ae4:	e0 97 00 04 	l.or r4,r23,r0
    5ae8:	bc 02 00 00 	l.sfeqi r2,0
    5aec:	10 00 00 08 	l.bf 5b0c <_dtoa_r+0x560>
    5af0:	ba 52 00 81 	l.srai r18,r18,0x1
    5af4:	84 b4 00 00 	l.lwz r5,0(r20)
    5af8:	84 d4 00 04 	l.lwz r6,4(r20)
    5afc:	04 00 2c 65 	l.jal 10c90 <__muldf3>
    5b00:	9d ce 00 01 	l.addi r14,r14,1
    5b04:	e2 cb 00 04 	l.or r22,r11,r0
    5b08:	e2 ec 00 04 	l.or r23,r12,r0
    5b0c:	bc 32 00 00 	l.sfnei r18,0
    5b10:	13 ff ff f3 	l.bf 5adc <_dtoa_r+0x530>
    5b14:	9e 94 00 08 	l.addi r20,r20,8
    5b18:	84 61 00 20 	l.lwz r3,32(r1)
    5b1c:	84 81 00 24 	l.lwz r4,36(r1)
    5b20:	e0 b6 00 04 	l.or r5,r22,r0
    5b24:	e0 d7 00 04 	l.or r6,r23,r0
    5b28:	04 00 28 35 	l.jal fbfc <__divdf3>
    5b2c:	15 00 00 00 	l.nop 0x0
    5b30:	d4 01 58 20 	l.sw 32(r1),r11
    5b34:	d4 01 60 24 	l.sw 36(r1),r12
    5b38:	84 41 00 44 	l.lwz r2,68(r1)
    5b3c:	bc 02 00 00 	l.sfeqi r2,0
    5b40:	10 00 00 0d 	l.bf 5b74 <_dtoa_r+0x5c8>
    5b44:	a8 6e 00 00 	l.ori r3,r14,0x0
    5b48:	18 40 00 01 	l.movhi r2,0x1
    5b4c:	84 61 00 20 	l.lwz r3,32(r1)
    5b50:	84 81 00 24 	l.lwz r4,36(r1)
    5b54:	a8 42 25 d8 	l.ori r2,r2,0x25d8
    5b58:	84 a2 00 00 	l.lwz r5,0(r2)
    5b5c:	84 c2 00 04 	l.lwz r6,4(r2)
    5b60:	04 00 2b d5 	l.jal 10ab4 <__ledf2>
    5b64:	15 00 00 00 	l.nop 0x0
    5b68:	bd 8b 00 00 	l.sfltsi r11,0
    5b6c:	10 00 04 c3 	l.bf 6e78 <_dtoa_r+0x18cc>
    5b70:	a8 6e 00 00 	l.ori r3,r14,0x0
    5b74:	04 00 31 47 	l.jal 12090 <__floatsidf>
    5b78:	18 40 00 01 	l.movhi r2,0x1
    5b7c:	84 a1 00 20 	l.lwz r5,32(r1)
    5b80:	84 c1 00 24 	l.lwz r6,36(r1)
    5b84:	e0 6b 00 04 	l.or r3,r11,r0
    5b88:	e0 8c 00 04 	l.or r4,r12,r0
    5b8c:	04 00 2c 41 	l.jal 10c90 <__muldf3>
    5b90:	a8 42 25 e8 	l.ori r2,r2,0x25e8
    5b94:	84 a2 00 00 	l.lwz r5,0(r2)
    5b98:	84 c2 00 04 	l.lwz r6,4(r2)
    5b9c:	e0 6b 00 04 	l.or r3,r11,r0
    5ba0:	e0 8c 00 04 	l.or r4,r12,r0
    5ba4:	04 00 25 4b 	l.jal f0d0 <__adddf3>
    5ba8:	15 00 00 00 	l.nop 0x0
    5bac:	84 81 00 28 	l.lwz r4,40(r1)
    5bb0:	18 a0 fc c0 	l.movhi r5,0xfcc0
    5bb4:	bc 24 00 00 	l.sfnei r4,0
    5bb8:	a8 4c 00 00 	l.ori r2,r12,0x0
    5bbc:	0c 00 02 b6 	l.bnf 6694 <_dtoa_r+0x10e8>
    5bc0:	e1 cb 28 00 	l.add r14,r11,r5
    5bc4:	d4 01 f0 68 	l.sw 104(r1),r30
    5bc8:	85 01 00 28 	l.lwz r8,40(r1)
    5bcc:	84 61 00 48 	l.lwz r3,72(r1)
    5bd0:	bc 03 00 00 	l.sfeqi r3,0
    5bd4:	10 00 03 99 	l.bf 6a38 <_dtoa_r+0x148c>
    5bd8:	18 a0 00 01 	l.movhi r5,0x1
    5bdc:	84 c1 00 34 	l.lwz r6,52(r1)
    5be0:	9c a8 ff ff 	l.addi r5,r8,-1
    5be4:	9f 86 00 01 	l.addi r28,r6,1
    5be8:	18 c0 00 01 	l.movhi r6,0x1
    5bec:	b8 a5 00 03 	l.slli r5,r5,0x3
    5bf0:	a8 c6 26 74 	l.ori r6,r6,0x2674
    5bf4:	18 60 00 01 	l.movhi r3,0x1
    5bf8:	e0 a5 30 00 	l.add r5,r5,r6
    5bfc:	a8 63 25 f8 	l.ori r3,r3,0x25f8
    5c00:	84 c5 00 04 	l.lwz r6,4(r5)
    5c04:	84 a5 00 00 	l.lwz r5,0(r5)
    5c08:	84 83 00 04 	l.lwz r4,4(r3)
    5c0c:	84 63 00 00 	l.lwz r3,0(r3)
    5c10:	04 00 27 fb 	l.jal fbfc <__divdf3>
    5c14:	d4 01 40 04 	l.sw 4(r1),r8
    5c18:	a8 e2 00 00 	l.ori r7,r2,0x0
    5c1c:	a8 ce 00 00 	l.ori r6,r14,0x0
    5c20:	e0 6b 00 04 	l.or r3,r11,r0
    5c24:	e0 8c 00 04 	l.or r4,r12,r0
    5c28:	e0 a6 00 04 	l.or r5,r6,r0
    5c2c:	e0 c7 00 04 	l.or r6,r7,r0
    5c30:	04 00 2e 0a 	l.jal 11458 <__subdf3>
    5c34:	15 00 00 00 	l.nop 0x0
    5c38:	84 61 00 20 	l.lwz r3,32(r1)
    5c3c:	84 81 00 24 	l.lwz r4,36(r1)
    5c40:	d4 01 58 2c 	l.sw 44(r1),r11
    5c44:	d4 01 60 30 	l.sw 48(r1),r12
    5c48:	04 00 30 e7 	l.jal 11fe4 <__fixdfsi>
    5c4c:	15 00 00 00 	l.nop 0x0
    5c50:	a8 6b 00 00 	l.ori r3,r11,0x0
    5c54:	04 00 31 0f 	l.jal 12090 <__floatsidf>
    5c58:	a8 4b 00 00 	l.ori r2,r11,0x0
    5c5c:	84 61 00 20 	l.lwz r3,32(r1)
    5c60:	84 81 00 24 	l.lwz r4,36(r1)
    5c64:	e0 ab 00 04 	l.or r5,r11,r0
    5c68:	e0 cc 00 04 	l.or r6,r12,r0
    5c6c:	04 00 2d fb 	l.jal 11458 <__subdf3>
    5c70:	15 00 00 00 	l.nop 0x0
    5c74:	9c e2 00 30 	l.addi r7,r2,48
    5c78:	84 41 00 34 	l.lwz r2,52(r1)
    5c7c:	b8 e7 00 18 	l.slli r7,r7,0x18
    5c80:	d4 01 58 20 	l.sw 32(r1),r11
    5c84:	d4 01 60 24 	l.sw 36(r1),r12
    5c88:	e0 ab 00 04 	l.or r5,r11,r0
    5c8c:	e0 cc 00 04 	l.or r6,r12,r0
    5c90:	b9 c7 00 98 	l.srai r14,r7,0x18
    5c94:	84 61 00 2c 	l.lwz r3,44(r1)
    5c98:	84 81 00 30 	l.lwz r4,48(r1)
    5c9c:	04 00 2b 13 	l.jal 108e8 <__gedf2>
    5ca0:	d8 02 70 00 	l.sb 0(r2),r14
    5ca4:	bd 4b 00 00 	l.sfgtsi r11,0
    5ca8:	10 00 00 66 	l.bf 5e40 <_dtoa_r+0x894>
    5cac:	1a c0 00 01 	l.movhi r22,0x1
    5cb0:	84 a1 00 20 	l.lwz r5,32(r1)
    5cb4:	84 c1 00 24 	l.lwz r6,36(r1)
    5cb8:	aa d6 25 d8 	l.ori r22,r22,0x25d8
    5cbc:	84 76 00 00 	l.lwz r3,0(r22)
    5cc0:	84 96 00 04 	l.lwz r4,4(r22)
    5cc4:	04 00 2d e5 	l.jal 11458 <__subdf3>
    5cc8:	15 00 00 00 	l.nop 0x0
    5ccc:	84 61 00 2c 	l.lwz r3,44(r1)
    5cd0:	84 81 00 30 	l.lwz r4,48(r1)
    5cd4:	e0 ab 00 04 	l.or r5,r11,r0
    5cd8:	e0 cc 00 04 	l.or r6,r12,r0
    5cdc:	04 00 2b 03 	l.jal 108e8 <__gedf2>
    5ce0:	15 00 00 00 	l.nop 0x0
    5ce4:	bd 4b 00 00 	l.sfgtsi r11,0
    5ce8:	10 00 04 c1 	l.bf 6fec <_dtoa_r+0x1a40>
    5cec:	85 01 00 04 	l.lwz r8,4(r1)
    5cf0:	bd a8 00 01 	l.sflesi r8,1
    5cf4:	10 00 03 21 	l.bf 6978 <_dtoa_r+0x13cc>
    5cf8:	18 40 00 01 	l.movhi r2,0x1
    5cfc:	84 81 00 34 	l.lwz r4,52(r1)
    5d00:	a8 42 25 e0 	l.ori r2,r2,0x25e0
    5d04:	e1 04 40 00 	l.add r8,r4,r8
    5d08:	86 82 00 00 	l.lwz r20,0(r2)
    5d0c:	84 42 00 04 	l.lwz r2,4(r2)
    5d10:	d4 01 f0 70 	l.sw 112(r1),r30
    5d14:	d4 01 d0 6c 	l.sw 108(r1),r26
    5d18:	aa 5c 00 00 	l.ori r18,r28,0x0
    5d1c:	d4 01 40 58 	l.sw 88(r1),r8
    5d20:	d4 01 a0 54 	l.sw 84(r1),r20
    5d24:	ab 54 00 00 	l.ori r26,r20,0x0
    5d28:	00 00 00 13 	l.j 5d74 <_dtoa_r+0x7c8>
    5d2c:	ab c2 00 00 	l.ori r30,r2,0x0
    5d30:	84 76 00 00 	l.lwz r3,0(r22)
    5d34:	84 96 00 04 	l.lwz r4,4(r22)
    5d38:	04 00 2d c8 	l.jal 11458 <__subdf3>
    5d3c:	15 00 00 00 	l.nop 0x0
    5d40:	84 a1 00 2c 	l.lwz r5,44(r1)
    5d44:	84 c1 00 30 	l.lwz r6,48(r1)
    5d48:	e0 6b 00 04 	l.or r3,r11,r0
    5d4c:	e0 8c 00 04 	l.or r4,r12,r0
    5d50:	04 00 2b 59 	l.jal 10ab4 <__ledf2>
    5d54:	15 00 00 00 	l.nop 0x0
    5d58:	bd 8b 00 00 	l.sfltsi r11,0
    5d5c:	10 00 04 a3 	l.bf 6fe8 <_dtoa_r+0x1a3c>
    5d60:	15 00 00 00 	l.nop 0x0
    5d64:	84 61 00 58 	l.lwz r3,88(r1)
    5d68:	e4 1c 18 00 	l.sfeq r28,r3
    5d6c:	10 00 03 01 	l.bf 6970 <_dtoa_r+0x13c4>
    5d70:	15 00 00 00 	l.nop 0x0
    5d74:	a8 e2 00 00 	l.ori r7,r2,0x0
    5d78:	a8 da 00 00 	l.ori r6,r26,0x0
    5d7c:	84 61 00 2c 	l.lwz r3,44(r1)
    5d80:	84 81 00 30 	l.lwz r4,48(r1)
    5d84:	e0 a6 00 04 	l.or r5,r6,r0
    5d88:	e0 c7 00 04 	l.or r6,r7,r0
    5d8c:	04 00 2b c1 	l.jal 10c90 <__muldf3>
    5d90:	9f 9c 00 01 	l.addi r28,r28,1
    5d94:	a8 fe 00 00 	l.ori r7,r30,0x0
    5d98:	84 c1 00 54 	l.lwz r6,84(r1)
    5d9c:	84 61 00 20 	l.lwz r3,32(r1)
    5da0:	84 81 00 24 	l.lwz r4,36(r1)
    5da4:	e0 a6 00 04 	l.or r5,r6,r0
    5da8:	e0 c7 00 04 	l.or r6,r7,r0
    5dac:	d4 01 58 2c 	l.sw 44(r1),r11
    5db0:	d4 01 60 30 	l.sw 48(r1),r12
    5db4:	04 00 2b b7 	l.jal 10c90 <__muldf3>
    5db8:	15 00 00 00 	l.nop 0x0
    5dbc:	e2 8b 00 04 	l.or r20,r11,r0
    5dc0:	e2 ac 00 04 	l.or r21,r12,r0
    5dc4:	e0 6b 00 04 	l.or r3,r11,r0
    5dc8:	e0 8c 00 04 	l.or r4,r12,r0
    5dcc:	04 00 30 86 	l.jal 11fe4 <__fixdfsi>
    5dd0:	d4 01 a8 04 	l.sw 4(r1),r21
    5dd4:	a9 cb 00 00 	l.ori r14,r11,0x0
    5dd8:	a8 6b 00 00 	l.ori r3,r11,0x0
    5ddc:	04 00 30 ad 	l.jal 12090 <__floatsidf>
    5de0:	9d ce 00 30 	l.addi r14,r14,48
    5de4:	b9 ce 00 18 	l.slli r14,r14,0x18
    5de8:	86 a1 00 04 	l.lwz r21,4(r1)
    5dec:	e0 ab 00 04 	l.or r5,r11,r0
    5df0:	e0 cc 00 04 	l.or r6,r12,r0
    5df4:	e0 74 00 04 	l.or r3,r20,r0
    5df8:	e0 95 00 04 	l.or r4,r21,r0
    5dfc:	04 00 2d 97 	l.jal 11458 <__subdf3>
    5e00:	b9 ce 00 98 	l.srai r14,r14,0x18
    5e04:	d8 12 70 00 	l.sb 0(r18),r14
    5e08:	84 a1 00 2c 	l.lwz r5,44(r1)
    5e0c:	84 c1 00 30 	l.lwz r6,48(r1)
    5e10:	d4 01 58 20 	l.sw 32(r1),r11
    5e14:	d4 01 60 24 	l.sw 36(r1),r12
    5e18:	e0 6b 00 04 	l.or r3,r11,r0
    5e1c:	e0 8c 00 04 	l.or r4,r12,r0
    5e20:	04 00 2b 25 	l.jal 10ab4 <__ledf2>
    5e24:	aa 5c 00 00 	l.ori r18,r28,0x0
    5e28:	bd 8b 00 00 	l.sfltsi r11,0
    5e2c:	84 a1 00 20 	l.lwz r5,32(r1)
    5e30:	84 c1 00 24 	l.lwz r6,36(r1)
    5e34:	0f ff ff bf 	l.bnf 5d30 <_dtoa_r+0x784>
    5e38:	15 00 00 00 	l.nop 0x0
    5e3c:	87 41 00 6c 	l.lwz r26,108(r1)
    5e40:	00 00 00 f9 	l.j 6224 <_dtoa_r+0xc78>
    5e44:	87 c1 00 68 	l.lwz r30,104(r1)
    5e48:	18 a0 00 0f 	l.movhi r5,0xf
    5e4c:	18 c0 3f f0 	l.movhi r6,0x3ff0
    5e50:	a8 a5 ff ff 	l.ori r5,r5,0xffff
    5e54:	9c 60 00 00 	l.addi r3,r0,0
    5e58:	e1 74 28 03 	l.and r11,r20,r5
    5e5c:	9e 52 fc 01 	l.addi r18,r18,-1023
    5e60:	e1 6b 30 04 	l.or r11,r11,r6
    5e64:	86 c1 00 74 	l.lwz r22,116(r1)
    5e68:	03 ff fe 60 	l.j 57e8 <_dtoa_r+0x23c>
    5e6c:	d4 01 18 5c 	l.sw 92(r1),r3
    5e70:	9c 40 00 00 	l.addi r2,r0,0
    5e74:	a8 7a 00 00 	l.ori r3,r26,0x0
    5e78:	d4 1a 10 44 	l.sw 68(r26),r2
    5e7c:	a8 82 00 00 	l.ori r4,r2,0x0
    5e80:	04 00 0d 13 	l.jal 92cc <_Balloc>
    5e84:	d4 01 28 28 	l.sw 40(r1),r5
    5e88:	d4 01 10 08 	l.sw 8(r1),r2
    5e8c:	9c 40 00 01 	l.addi r2,r0,1
    5e90:	84 61 00 28 	l.lwz r3,40(r1)
    5e94:	d4 01 10 48 	l.sw 72(r1),r2
    5e98:	84 41 00 08 	l.lwz r2,8(r1)
    5e9c:	d4 01 58 34 	l.sw 52(r1),r11
    5ea0:	d4 1a 58 40 	l.sw 64(r26),r11
    5ea4:	d4 01 18 50 	l.sw 80(r1),r3
    5ea8:	d4 01 10 1c 	l.sw 28(r1),r2
    5eac:	84 61 00 78 	l.lwz r3,120(r1)
    5eb0:	bd 83 00 00 	l.sfltsi r3,0
    5eb4:	10 00 00 33 	l.bf 5f80 <_dtoa_r+0x9d4>
    5eb8:	bd be 00 0e 	l.sflesi r30,14
    5ebc:	10 00 00 03 	l.bf 5ec8 <_dtoa_r+0x91c>
    5ec0:	9c 40 00 01 	l.addi r2,r0,1
    5ec4:	9c 40 00 00 	l.addi r2,r0,0
    5ec8:	a4 42 00 ff 	l.andi r2,r2,0xff
    5ecc:	bc 02 00 00 	l.sfeqi r2,0
    5ed0:	10 00 00 2d 	l.bf 5f84 <_dtoa_r+0x9d8>
    5ed4:	84 41 00 48 	l.lwz r2,72(r1)
    5ed8:	18 80 00 01 	l.movhi r4,0x1
    5edc:	b8 5e 00 03 	l.slli r2,r30,0x3
    5ee0:	a8 84 26 74 	l.ori r4,r4,0x2674
    5ee4:	84 61 00 1c 	l.lwz r3,28(r1)
    5ee8:	e0 42 20 00 	l.add r2,r2,r4
    5eec:	bd 63 00 00 	l.sfgesi r3,0
    5ef0:	84 a2 00 00 	l.lwz r5,0(r2)
    5ef4:	84 c2 00 04 	l.lwz r6,4(r2)
    5ef8:	d4 01 28 08 	l.sw 8(r1),r5
    5efc:	d4 01 30 0c 	l.sw 12(r1),r6
    5f00:	10 00 01 2c 	l.bf 63b0 <_dtoa_r+0xe04>
    5f04:	84 c1 00 28 	l.lwz r6,40(r1)
    5f08:	bd a6 00 00 	l.sflesi r6,0
    5f0c:	0c 00 01 29 	l.bnf 63b0 <_dtoa_r+0xe04>
    5f10:	84 41 00 28 	l.lwz r2,40(r1)
    5f14:	bc 22 00 00 	l.sfnei r2,0
    5f18:	10 00 02 02 	l.bf 6720 <_dtoa_r+0x1174>
    5f1c:	9e 40 00 00 	l.addi r18,r0,0
    5f20:	18 40 00 01 	l.movhi r2,0x1
    5f24:	84 61 00 08 	l.lwz r3,8(r1)
    5f28:	84 81 00 0c 	l.lwz r4,12(r1)
    5f2c:	a8 42 25 f0 	l.ori r2,r2,0x25f0
    5f30:	84 a2 00 00 	l.lwz r5,0(r2)
    5f34:	84 c2 00 04 	l.lwz r6,4(r2)
    5f38:	04 00 2b 56 	l.jal 10c90 <__muldf3>
    5f3c:	15 00 00 00 	l.nop 0x0
    5f40:	a8 ee 00 00 	l.ori r7,r14,0x0
    5f44:	a8 d4 00 00 	l.ori r6,r20,0x0
    5f48:	e0 6b 00 04 	l.or r3,r11,r0
    5f4c:	e0 8c 00 04 	l.or r4,r12,r0
    5f50:	e0 a6 00 04 	l.or r5,r6,r0
    5f54:	e0 c7 00 04 	l.or r6,r7,r0
    5f58:	04 00 2a 64 	l.jal 108e8 <__gedf2>
    5f5c:	15 00 00 00 	l.nop 0x0
    5f60:	86 41 00 28 	l.lwz r18,40(r1)
    5f64:	bd 6b 00 00 	l.sfgesi r11,0
    5f68:	0c 00 00 a1 	l.bnf 61ec <_dtoa_r+0xc40>
    5f6c:	a8 52 00 00 	l.ori r2,r18,0x0
    5f70:	84 81 00 1c 	l.lwz r4,28(r1)
    5f74:	87 81 00 34 	l.lwz r28,52(r1)
    5f78:	00 00 00 a2 	l.j 6200 <_dtoa_r+0xc54>
    5f7c:	af c4 ff ff 	l.xori r30,r4,-1
    5f80:	84 41 00 48 	l.lwz r2,72(r1)
    5f84:	bc 02 00 00 	l.sfeqi r2,0
    5f88:	0c 00 00 dc 	l.bnf 62f8 <_dtoa_r+0xd4c>
    5f8c:	84 41 00 08 	l.lwz r2,8(r1)
    5f90:	86 41 00 40 	l.lwz r18,64(r1)
    5f94:	86 c1 00 38 	l.lwz r22,56(r1)
    5f98:	84 41 00 48 	l.lwz r2,72(r1)
    5f9c:	bd b6 00 00 	l.sflesi r22,0
    5fa0:	10 00 00 0f 	l.bf 5fdc <_dtoa_r+0xa30>
    5fa4:	84 61 00 10 	l.lwz r3,16(r1)
    5fa8:	bd a3 00 00 	l.sflesi r3,0
    5fac:	10 00 00 0c 	l.bf 5fdc <_dtoa_r+0xa30>
    5fb0:	e5 b6 18 00 	l.sfles r22,r3
    5fb4:	10 00 00 03 	l.bf 5fc0 <_dtoa_r+0xa14>
    5fb8:	a8 76 00 00 	l.ori r3,r22,0x0
    5fbc:	84 61 00 10 	l.lwz r3,16(r1)
    5fc0:	84 81 00 38 	l.lwz r4,56(r1)
    5fc4:	84 a1 00 10 	l.lwz r5,16(r1)
    5fc8:	e0 84 18 02 	l.sub r4,r4,r3
    5fcc:	e0 a5 18 02 	l.sub r5,r5,r3
    5fd0:	d4 01 20 38 	l.sw 56(r1),r4
    5fd4:	e2 d6 18 02 	l.sub r22,r22,r3
    5fd8:	d4 01 28 10 	l.sw 16(r1),r5
    5fdc:	84 c1 00 40 	l.lwz r6,64(r1)
    5fe0:	bd a6 00 00 	l.sflesi r6,0
    5fe4:	10 00 00 19 	l.bf 6048 <_dtoa_r+0xa9c>
    5fe8:	84 61 00 48 	l.lwz r3,72(r1)
    5fec:	bc 03 00 00 	l.sfeqi r3,0
    5ff0:	10 00 02 5a 	l.bf 6958 <_dtoa_r+0x13ac>
    5ff4:	bc 12 00 00 	l.sfeqi r18,0
    5ff8:	10 00 02 58 	l.bf 6958 <_dtoa_r+0x13ac>
    5ffc:	e0 c6 90 02 	l.sub r6,r6,r18
    6000:	a8 82 00 00 	l.ori r4,r2,0x0
    6004:	a8 b2 00 00 	l.ori r5,r18,0x0
    6008:	a8 7a 00 00 	l.ori r3,r26,0x0
    600c:	04 00 0e 91 	l.jal 9a50 <__pow5mult>
    6010:	d4 01 30 40 	l.sw 64(r1),r6
    6014:	84 a1 00 3c 	l.lwz r5,60(r1)
    6018:	a8 8b 00 00 	l.ori r4,r11,0x0
    601c:	a8 7a 00 00 	l.ori r3,r26,0x0
    6020:	04 00 0d fd 	l.jal 9814 <__multiply>
    6024:	a8 4b 00 00 	l.ori r2,r11,0x0
    6028:	84 81 00 3c 	l.lwz r4,60(r1)
    602c:	a8 7a 00 00 	l.ori r3,r26,0x0
    6030:	04 00 0c d6 	l.jal 9388 <_Bfree>
    6034:	d4 01 58 3c 	l.sw 60(r1),r11
    6038:	84 81 00 40 	l.lwz r4,64(r1)
    603c:	bc 04 00 00 	l.sfeqi r4,0
    6040:	0c 00 02 47 	l.bnf 695c <_dtoa_r+0x13b0>
    6044:	84 a1 00 40 	l.lwz r5,64(r1)
    6048:	9c 80 00 01 	l.addi r4,r0,1
    604c:	04 00 0d e3 	l.jal 97d8 <__i2b>
    6050:	a8 7a 00 00 	l.ori r3,r26,0x0
    6054:	84 a1 00 4c 	l.lwz r5,76(r1)
    6058:	bc 05 00 00 	l.sfeqi r5,0
    605c:	10 00 02 1b 	l.bf 68c8 <_dtoa_r+0x131c>
    6060:	aa 4b 00 00 	l.ori r18,r11,0x0
    6064:	a8 8b 00 00 	l.ori r4,r11,0x0
    6068:	04 00 0e 7a 	l.jal 9a50 <__pow5mult>
    606c:	a8 7a 00 00 	l.ori r3,r26,0x0
    6070:	84 c1 00 08 	l.lwz r6,8(r1)
    6074:	bd a6 00 01 	l.sflesi r6,1
    6078:	0c 00 02 ec 	l.bnf 6c28 <_dtoa_r+0x167c>
    607c:	aa 4b 00 00 	l.ori r18,r11,0x0
    6080:	bc 0e 00 00 	l.sfeqi r14,0
    6084:	0c 00 02 ea 	l.bnf 6c2c <_dtoa_r+0x1680>
    6088:	9f 00 00 00 	l.addi r24,r0,0
    608c:	18 80 00 0f 	l.movhi r4,0xf
    6090:	9f 00 00 00 	l.addi r24,r0,0
    6094:	a8 84 ff ff 	l.ori r4,r4,0xffff
    6098:	e0 74 20 03 	l.and r3,r20,r4
    609c:	e4 23 c0 00 	l.sfne r3,r24
    60a0:	10 00 00 0f 	l.bf 60dc <_dtoa_r+0xb30>
    60a4:	84 81 00 4c 	l.lwz r4,76(r1)
    60a8:	18 a0 7f f0 	l.movhi r5,0x7ff0
    60ac:	e2 94 28 03 	l.and r20,r20,r5
    60b0:	e4 14 c0 00 	l.sfeq r20,r24
    60b4:	10 00 00 0b 	l.bf 60e0 <_dtoa_r+0xb34>
    60b8:	bc 04 00 00 	l.sfeqi r4,0
    60bc:	84 c1 00 38 	l.lwz r6,56(r1)
    60c0:	84 61 00 10 	l.lwz r3,16(r1)
    60c4:	9c c6 00 01 	l.addi r6,r6,1
    60c8:	9c 63 00 01 	l.addi r3,r3,1
    60cc:	d4 01 30 38 	l.sw 56(r1),r6
    60d0:	d4 01 18 10 	l.sw 16(r1),r3
    60d4:	9f 00 00 01 	l.addi r24,r0,1
    60d8:	84 81 00 4c 	l.lwz r4,76(r1)
    60dc:	bc 04 00 00 	l.sfeqi r4,0
    60e0:	0c 00 02 d3 	l.bnf 6c2c <_dtoa_r+0x1680>
    60e4:	9d 60 00 01 	l.addi r11,r0,1
    60e8:	84 a1 00 10 	l.lwz r5,16(r1)
    60ec:	e0 6b 28 00 	l.add r3,r11,r5
    60f0:	a4 63 00 1f 	l.andi r3,r3,0x1f
    60f4:	bc 03 00 00 	l.sfeqi r3,0
    60f8:	10 00 01 8c 	l.bf 6728 <_dtoa_r+0x117c>
    60fc:	9c 80 00 20 	l.addi r4,r0,32
    6100:	e0 84 18 02 	l.sub r4,r4,r3
    6104:	bd a4 00 04 	l.sflesi r4,4
    6108:	10 00 04 14 	l.bf 7158 <_dtoa_r+0x1bac>
    610c:	84 c1 00 38 	l.lwz r6,56(r1)
    6110:	9c 80 00 1c 	l.addi r4,r0,28
    6114:	e0 64 18 02 	l.sub r3,r4,r3
    6118:	e0 c6 18 00 	l.add r6,r6,r3
    611c:	e0 a5 18 00 	l.add r5,r5,r3
    6120:	d4 01 30 38 	l.sw 56(r1),r6
    6124:	e2 d6 18 00 	l.add r22,r22,r3
    6128:	d4 01 28 10 	l.sw 16(r1),r5
    612c:	84 c1 00 38 	l.lwz r6,56(r1)
    6130:	bd a6 00 00 	l.sflesi r6,0
    6134:	10 00 00 06 	l.bf 614c <_dtoa_r+0xba0>
    6138:	a8 a6 00 00 	l.ori r5,r6,0x0
    613c:	84 81 00 3c 	l.lwz r4,60(r1)
    6140:	04 00 0e a5 	l.jal 9bd4 <__lshift>
    6144:	a8 7a 00 00 	l.ori r3,r26,0x0
    6148:	d4 01 58 3c 	l.sw 60(r1),r11
    614c:	84 61 00 10 	l.lwz r3,16(r1)
    6150:	bd a3 00 00 	l.sflesi r3,0
    6154:	10 00 00 06 	l.bf 616c <_dtoa_r+0xbc0>
    6158:	a8 a3 00 00 	l.ori r5,r3,0x0
    615c:	a8 92 00 00 	l.ori r4,r18,0x0
    6160:	04 00 0e 9d 	l.jal 9bd4 <__lshift>
    6164:	a8 7a 00 00 	l.ori r3,r26,0x0
    6168:	aa 4b 00 00 	l.ori r18,r11,0x0
    616c:	84 81 00 44 	l.lwz r4,68(r1)
    6170:	bc 04 00 00 	l.sfeqi r4,0
    6174:	0c 00 02 8e 	l.bnf 6bac <_dtoa_r+0x1600>
    6178:	a8 92 00 00 	l.ori r4,r18,0x0
    617c:	84 a1 00 28 	l.lwz r5,40(r1)
    6180:	bd 45 00 00 	l.sfgtsi r5,0
    6184:	10 00 01 72 	l.bf 674c <_dtoa_r+0x11a0>
    6188:	9f 85 ff ff 	l.addi r28,r5,-1
    618c:	84 c1 00 08 	l.lwz r6,8(r1)
    6190:	bd 46 00 02 	l.sfgtsi r6,2
    6194:	10 00 00 03 	l.bf 61a0 <_dtoa_r+0xbf4>
    6198:	9c 60 00 01 	l.addi r3,r0,1
    619c:	9c 60 00 00 	l.addi r3,r0,0
    61a0:	a4 63 00 ff 	l.andi r3,r3,0xff
    61a4:	bc 03 00 00 	l.sfeqi r3,0
    61a8:	10 00 01 6a 	l.bf 6750 <_dtoa_r+0x11a4>
    61ac:	84 61 00 48 	l.lwz r3,72(r1)
    61b0:	84 61 00 28 	l.lwz r3,40(r1)
    61b4:	bc 23 00 00 	l.sfnei r3,0
    61b8:	13 ff ff 6e 	l.bf 5f70 <_dtoa_r+0x9c4>
    61bc:	a8 c3 00 00 	l.ori r6,r3,0x0
    61c0:	a8 92 00 00 	l.ori r4,r18,0x0
    61c4:	9c a0 00 05 	l.addi r5,r0,5
    61c8:	04 00 0c 7e 	l.jal 93c0 <__multadd>
    61cc:	a8 7a 00 00 	l.ori r3,r26,0x0
    61d0:	84 61 00 3c 	l.lwz r3,60(r1)
    61d4:	a8 8b 00 00 	l.ori r4,r11,0x0
    61d8:	04 00 0e df 	l.jal 9d54 <__mcmp>
    61dc:	aa 4b 00 00 	l.ori r18,r11,0x0
    61e0:	bd 4b 00 00 	l.sfgtsi r11,0
    61e4:	0f ff ff 64 	l.bnf 5f74 <_dtoa_r+0x9c8>
    61e8:	84 81 00 1c 	l.lwz r4,28(r1)
    61ec:	84 a1 00 34 	l.lwz r5,52(r1)
    61f0:	9c c0 00 31 	l.addi r6,r0,49
    61f4:	9f 85 00 01 	l.addi r28,r5,1
    61f8:	d8 05 30 00 	l.sb 0(r5),r6
    61fc:	9f de 00 01 	l.addi r30,r30,1
    6200:	a8 92 00 00 	l.ori r4,r18,0x0
    6204:	04 00 0c 61 	l.jal 9388 <_Bfree>
    6208:	a8 7a 00 00 	l.ori r3,r26,0x0
    620c:	bc 22 00 00 	l.sfnei r2,0
    6210:	0c 00 00 06 	l.bnf 6228 <_dtoa_r+0xc7c>
    6214:	84 81 00 3c 	l.lwz r4,60(r1)
    6218:	a8 82 00 00 	l.ori r4,r2,0x0
    621c:	04 00 0c 5b 	l.jal 9388 <_Bfree>
    6220:	a8 7a 00 00 	l.ori r3,r26,0x0
    6224:	84 81 00 3c 	l.lwz r4,60(r1)
    6228:	a8 7a 00 00 	l.ori r3,r26,0x0
    622c:	04 00 0c 57 	l.jal 9388 <_Bfree>
    6230:	9c 5e 00 01 	l.addi r2,r30,1
    6234:	9c a0 00 00 	l.addi r5,r0,0
    6238:	84 c1 00 18 	l.lwz r6,24(r1)
    623c:	d8 1c 28 00 	l.sb 0(r28),r5
    6240:	d4 06 10 00 	l.sw 0(r6),r2
    6244:	84 41 00 ac 	l.lwz r2,172(r1)
    6248:	bc 02 00 00 	l.sfeqi r2,0
    624c:	10 00 02 fa 	l.bf 6e34 <_dtoa_r+0x1888>
    6250:	15 00 00 00 	l.nop 0x0
    6254:	d4 02 e0 00 	l.sw 0(r2),r28
    6258:	03 ff fd 16 	l.j 56b0 <_dtoa_r+0x104>
    625c:	85 61 00 34 	l.lwz r11,52(r1)
    6260:	84 a1 00 38 	l.lwz r5,56(r1)
    6264:	e0 c0 f0 02 	l.sub r6,r0,r30
    6268:	e0 a5 f0 02 	l.sub r5,r5,r30
    626c:	9c 60 00 00 	l.addi r3,r0,0
    6270:	d4 01 28 38 	l.sw 56(r1),r5
    6274:	d4 01 30 40 	l.sw 64(r1),r6
    6278:	03 ff fd bd 	l.j 596c <_dtoa_r+0x3c0>
    627c:	d4 01 18 4c 	l.sw 76(r1),r3
    6280:	e0 a0 90 02 	l.sub r5,r0,r18
    6284:	d4 01 20 10 	l.sw 16(r1),r4
    6288:	03 ff fd b1 	l.j 594c <_dtoa_r+0x3a0>
    628c:	d4 01 28 38 	l.sw 56(r1),r5
    6290:	04 00 2f 80 	l.jal 12090 <__floatsidf>
    6294:	a8 7e 00 00 	l.ori r3,r30,0x0
    6298:	84 61 00 10 	l.lwz r3,16(r1)
    629c:	84 81 00 14 	l.lwz r4,20(r1)
    62a0:	e0 ab 00 04 	l.or r5,r11,r0
    62a4:	e0 cc 00 04 	l.or r6,r12,r0
    62a8:	04 00 29 4d 	l.jal 107dc <__eqdf2>
    62ac:	15 00 00 00 	l.nop 0x0
    62b0:	bc 2b 00 00 	l.sfnei r11,0
    62b4:	0f ff fd 8a 	l.bnf 58dc <_dtoa_r+0x330>
    62b8:	9c c0 00 01 	l.addi r6,r0,1
    62bc:	03 ff fd 88 	l.j 58dc <_dtoa_r+0x330>
    62c0:	9f de ff ff 	l.addi r30,r30,-1
    62c4:	03 ff fd 9b 	l.j 5930 <_dtoa_r+0x384>
    62c8:	d4 01 18 44 	l.sw 68(r1),r3
    62cc:	e0 63 20 02 	l.sub r3,r3,r4
    62d0:	03 ff fd 40 	l.j 57d0 <_dtoa_r+0x224>
    62d4:	e0 62 18 08 	l.sll r3,r2,r3
    62d8:	9c 40 00 01 	l.addi r2,r0,1
    62dc:	9c a0 ff ff 	l.addi r5,r0,-1
    62e0:	d4 01 10 48 	l.sw 72(r1),r2
    62e4:	9c 40 00 00 	l.addi r2,r0,0
    62e8:	d4 01 28 28 	l.sw 40(r1),r5
    62ec:	d4 01 28 50 	l.sw 80(r1),r5
    62f0:	d4 01 10 1c 	l.sw 28(r1),r2
    62f4:	84 41 00 08 	l.lwz r2,8(r1)
    62f8:	bd 42 00 01 	l.sfgtsi r2,1
    62fc:	0c 00 03 2f 	l.bnf 6fb8 <_dtoa_r+0x1a0c>
    6300:	84 81 00 40 	l.lwz r4,64(r1)
    6304:	84 61 00 28 	l.lwz r3,40(r1)
    6308:	9c 43 ff ff 	l.addi r2,r3,-1
    630c:	e5 84 10 00 	l.sflts r4,r2
    6310:	0c 00 00 09 	l.bnf 6334 <_dtoa_r+0xd88>
    6314:	e2 44 10 02 	l.sub r18,r4,r2
    6318:	84 a1 00 40 	l.lwz r5,64(r1)
    631c:	84 c1 00 4c 	l.lwz r6,76(r1)
    6320:	e0 62 28 02 	l.sub r3,r2,r5
    6324:	9e 40 00 00 	l.addi r18,r0,0
    6328:	e0 c6 18 00 	l.add r6,r6,r3
    632c:	d4 01 10 40 	l.sw 64(r1),r2
    6330:	d4 01 30 4c 	l.sw 76(r1),r6
    6334:	84 41 00 28 	l.lwz r2,40(r1)
    6338:	bd 62 00 00 	l.sfgesi r2,0
    633c:	0c 00 03 27 	l.bnf 6fd8 <_dtoa_r+0x1a2c>
    6340:	15 00 00 00 	l.nop 0x0
    6344:	86 c1 00 38 	l.lwz r22,56(r1)
    6348:	84 a1 00 38 	l.lwz r5,56(r1)
    634c:	84 c1 00 10 	l.lwz r6,16(r1)
    6350:	e0 a5 10 00 	l.add r5,r5,r2
    6354:	e0 c6 10 00 	l.add r6,r6,r2
    6358:	9c 80 00 01 	l.addi r4,r0,1
    635c:	a8 7a 00 00 	l.ori r3,r26,0x0
    6360:	d4 01 28 38 	l.sw 56(r1),r5
    6364:	04 00 0d 1d 	l.jal 97d8 <__i2b>
    6368:	d4 01 30 10 	l.sw 16(r1),r6
    636c:	03 ff ff 0c 	l.j 5f9c <_dtoa_r+0x9f0>
    6370:	a8 4b 00 00 	l.ori r2,r11,0x0
    6374:	9c a0 00 01 	l.addi r5,r0,1
    6378:	d4 01 28 48 	l.sw 72(r1),r5
    637c:	84 c1 00 1c 	l.lwz r6,28(r1)
    6380:	bd a6 00 00 	l.sflesi r6,0
    6384:	10 00 02 b8 	l.bf 6e64 <_dtoa_r+0x18b8>
    6388:	bc a6 00 0e 	l.sfleui r6,14
    638c:	a8 e6 00 00 	l.ori r7,r6,0x0
    6390:	10 00 00 03 	l.bf 639c <_dtoa_r+0xdf0>
    6394:	9e 40 00 01 	l.addi r18,r0,1
    6398:	9e 40 00 00 	l.addi r18,r0,0
    639c:	e2 43 90 03 	l.and r18,r3,r18
    63a0:	84 61 00 1c 	l.lwz r3,28(r1)
    63a4:	d4 01 18 50 	l.sw 80(r1),r3
    63a8:	03 ff fd 95 	l.j 59fc <_dtoa_r+0x450>
    63ac:	d4 01 18 28 	l.sw 40(r1),r3
    63b0:	a8 54 00 00 	l.ori r2,r20,0x0
    63b4:	84 81 00 34 	l.lwz r4,52(r1)
    63b8:	a8 6e 00 00 	l.ori r3,r14,0x0
    63bc:	9f 84 00 01 	l.addi r28,r4,1
    63c0:	e0 83 00 04 	l.or r4,r3,r0
    63c4:	e0 62 00 04 	l.or r3,r2,r0
    63c8:	84 a1 00 08 	l.lwz r5,8(r1)
    63cc:	84 c1 00 0c 	l.lwz r6,12(r1)
    63d0:	04 00 26 0b 	l.jal fbfc <__divdf3>
    63d4:	15 00 00 00 	l.nop 0x0
    63d8:	e0 6b 00 04 	l.or r3,r11,r0
    63dc:	e0 8c 00 04 	l.or r4,r12,r0
    63e0:	04 00 2f 01 	l.jal 11fe4 <__fixdfsi>
    63e4:	15 00 00 00 	l.nop 0x0
    63e8:	a8 6b 00 00 	l.ori r3,r11,0x0
    63ec:	04 00 2f 29 	l.jal 12090 <__floatsidf>
    63f0:	aa cb 00 00 	l.ori r22,r11,0x0
    63f4:	84 a1 00 08 	l.lwz r5,8(r1)
    63f8:	84 c1 00 0c 	l.lwz r6,12(r1)
    63fc:	e0 6b 00 04 	l.or r3,r11,r0
    6400:	e0 8c 00 04 	l.or r4,r12,r0
    6404:	04 00 2a 23 	l.jal 10c90 <__muldf3>
    6408:	15 00 00 00 	l.nop 0x0
    640c:	a8 6e 00 00 	l.ori r3,r14,0x0
    6410:	e0 ab 00 04 	l.or r5,r11,r0
    6414:	e0 cc 00 04 	l.or r6,r12,r0
    6418:	e0 83 00 04 	l.or r4,r3,r0
    641c:	e0 62 00 04 	l.or r3,r2,r0
    6420:	04 00 2c 0e 	l.jal 11458 <__subdf3>
    6424:	15 00 00 00 	l.nop 0x0
    6428:	9c 96 00 30 	l.addi r4,r22,48
    642c:	84 a1 00 28 	l.lwz r5,40(r1)
    6430:	84 c1 00 34 	l.lwz r6,52(r1)
    6434:	a8 4b 00 00 	l.ori r2,r11,0x0
    6438:	bc 05 00 01 	l.sfeqi r5,1
    643c:	d8 06 20 00 	l.sb 0(r6),r4
    6440:	10 00 00 4f 	l.bf 657c <_dtoa_r+0xfd0>
    6444:	a9 62 00 00 	l.ori r11,r2,0x0
    6448:	a9 c2 00 00 	l.ori r14,r2,0x0
    644c:	18 40 00 01 	l.movhi r2,0x1
    6450:	a9 ec 00 00 	l.ori r15,r12,0x0
    6454:	a8 42 25 e0 	l.ori r2,r2,0x25e0
    6458:	e0 6e 00 04 	l.or r3,r14,r0
    645c:	e0 8f 00 04 	l.or r4,r15,r0
    6460:	84 a2 00 00 	l.lwz r5,0(r2)
    6464:	84 c2 00 04 	l.lwz r6,4(r2)
    6468:	04 00 2a 0a 	l.jal 10c90 <__muldf3>
    646c:	15 00 00 00 	l.nop 0x0
    6470:	e1 cb 00 04 	l.or r14,r11,r0
    6474:	e1 ec 00 04 	l.or r15,r12,r0
    6478:	84 b8 00 00 	l.lwz r5,0(r24)
    647c:	84 d8 00 04 	l.lwz r6,4(r24)
    6480:	e0 6b 00 04 	l.or r3,r11,r0
    6484:	e0 8c 00 04 	l.or r4,r12,r0
    6488:	04 00 28 d5 	l.jal 107dc <__eqdf2>
    648c:	d4 01 78 04 	l.sw 4(r1),r15
    6490:	bc 0b 00 00 	l.sfeqi r11,0
    6494:	13 ff ff 64 	l.bf 6224 <_dtoa_r+0xc78>
    6498:	85 e1 00 04 	l.lwz r15,4(r1)
    649c:	84 c1 00 28 	l.lwz r6,40(r1)
    64a0:	84 61 00 34 	l.lwz r3,52(r1)
    64a4:	9e 46 ff ff 	l.addi r18,r6,-1
    64a8:	aa 9c 00 00 	l.ori r20,r28,0x0
    64ac:	00 00 00 11 	l.j 64f0 <_dtoa_r+0xf44>
    64b0:	e2 43 90 00 	l.add r18,r3,r18
    64b4:	84 a2 00 00 	l.lwz r5,0(r2)
    64b8:	84 c2 00 04 	l.lwz r6,4(r2)
    64bc:	04 00 29 f5 	l.jal 10c90 <__muldf3>
    64c0:	aa 9c 00 00 	l.ori r20,r28,0x0
    64c4:	e1 cb 00 04 	l.or r14,r11,r0
    64c8:	e1 ec 00 04 	l.or r15,r12,r0
    64cc:	84 b8 00 00 	l.lwz r5,0(r24)
    64d0:	84 d8 00 04 	l.lwz r6,4(r24)
    64d4:	e0 6b 00 04 	l.or r3,r11,r0
    64d8:	e0 8c 00 04 	l.or r4,r12,r0
    64dc:	04 00 28 c0 	l.jal 107dc <__eqdf2>
    64e0:	d4 01 78 04 	l.sw 4(r1),r15
    64e4:	bc 0b 00 00 	l.sfeqi r11,0
    64e8:	13 ff ff 4f 	l.bf 6224 <_dtoa_r+0xc78>
    64ec:	85 e1 00 04 	l.lwz r15,4(r1)
    64f0:	e0 6e 00 04 	l.or r3,r14,r0
    64f4:	e0 8f 00 04 	l.or r4,r15,r0
    64f8:	d4 01 78 04 	l.sw 4(r1),r15
    64fc:	84 a1 00 08 	l.lwz r5,8(r1)
    6500:	84 c1 00 0c 	l.lwz r6,12(r1)
    6504:	04 00 25 be 	l.jal fbfc <__divdf3>
    6508:	9f 94 00 01 	l.addi r28,r20,1
    650c:	e0 6b 00 04 	l.or r3,r11,r0
    6510:	e0 8c 00 04 	l.or r4,r12,r0
    6514:	04 00 2e b4 	l.jal 11fe4 <__fixdfsi>
    6518:	15 00 00 00 	l.nop 0x0
    651c:	a8 6b 00 00 	l.ori r3,r11,0x0
    6520:	04 00 2e dc 	l.jal 12090 <__floatsidf>
    6524:	aa cb 00 00 	l.ori r22,r11,0x0
    6528:	84 a1 00 08 	l.lwz r5,8(r1)
    652c:	84 c1 00 0c 	l.lwz r6,12(r1)
    6530:	e0 6b 00 04 	l.or r3,r11,r0
    6534:	e0 8c 00 04 	l.or r4,r12,r0
    6538:	04 00 29 d6 	l.jal 10c90 <__muldf3>
    653c:	15 00 00 00 	l.nop 0x0
    6540:	85 e1 00 04 	l.lwz r15,4(r1)
    6544:	e0 ab 00 04 	l.or r5,r11,r0
    6548:	e0 cc 00 04 	l.or r6,r12,r0
    654c:	e0 6e 00 04 	l.or r3,r14,r0
    6550:	e0 8f 00 04 	l.or r4,r15,r0
    6554:	04 00 2b c1 	l.jal 11458 <__subdf3>
    6558:	15 00 00 00 	l.nop 0x0
    655c:	9c d6 00 30 	l.addi r6,r22,48
    6560:	a8 8b 00 00 	l.ori r4,r11,0x0
    6564:	a8 ac 00 00 	l.ori r5,r12,0x0
    6568:	e4 14 90 00 	l.sfeq r20,r18
    656c:	e0 64 00 04 	l.or r3,r4,r0
    6570:	e0 85 00 04 	l.or r4,r5,r0
    6574:	0f ff ff d0 	l.bnf 64b4 <_dtoa_r+0xf08>
    6578:	d8 14 30 00 	l.sb 0(r20),r6
    657c:	a8 8b 00 00 	l.ori r4,r11,0x0
    6580:	a8 4b 00 00 	l.ori r2,r11,0x0
    6584:	a8 ac 00 00 	l.ori r5,r12,0x0
    6588:	a8 6c 00 00 	l.ori r3,r12,0x0
    658c:	e0 c5 00 04 	l.or r6,r5,r0
    6590:	e0 a4 00 04 	l.or r5,r4,r0
    6594:	e0 83 00 04 	l.or r4,r3,r0
    6598:	e0 62 00 04 	l.or r3,r2,r0
    659c:	04 00 22 cd 	l.jal f0d0 <__adddf3>
    65a0:	15 00 00 00 	l.nop 0x0
    65a4:	e1 ac 00 04 	l.or r13,r12,r0
    65a8:	e1 8b 00 04 	l.or r12,r11,r0
    65ac:	84 61 00 08 	l.lwz r3,8(r1)
    65b0:	84 81 00 0c 	l.lwz r4,12(r1)
    65b4:	e0 ac 00 04 	l.or r5,r12,r0
    65b8:	e0 cd 00 04 	l.or r6,r13,r0
    65bc:	d4 01 60 00 	l.sw 0(r1),r12
    65c0:	04 00 29 3d 	l.jal 10ab4 <__ledf2>
    65c4:	d4 01 68 04 	l.sw 4(r1),r13
    65c8:	bd 8b 00 00 	l.sfltsi r11,0
    65cc:	85 81 00 00 	l.lwz r12,0(r1)
    65d0:	10 00 00 0f 	l.bf 660c <_dtoa_r+0x1060>
    65d4:	85 a1 00 04 	l.lwz r13,4(r1)
    65d8:	e0 ac 00 04 	l.or r5,r12,r0
    65dc:	e0 cd 00 04 	l.or r6,r13,r0
    65e0:	84 61 00 08 	l.lwz r3,8(r1)
    65e4:	84 81 00 0c 	l.lwz r4,12(r1)
    65e8:	04 00 28 7d 	l.jal 107dc <__eqdf2>
    65ec:	15 00 00 00 	l.nop 0x0
    65f0:	bc 0b 00 00 	l.sfeqi r11,0
    65f4:	0f ff ff 0d 	l.bnf 6228 <_dtoa_r+0xc7c>
    65f8:	84 81 00 3c 	l.lwz r4,60(r1)
    65fc:	a6 d6 00 01 	l.andi r22,r22,0x1
    6600:	bc 16 00 00 	l.sfeqi r22,0
    6604:	13 ff ff 09 	l.bf 6228 <_dtoa_r+0xc7c>
    6608:	15 00 00 00 	l.nop 0x0
    660c:	91 dc ff ff 	l.lbs r14,-1(r28)
    6610:	9c 7c ff ff 	l.addi r3,r28,-1
    6614:	84 81 00 34 	l.lwz r4,52(r1)
    6618:	00 00 00 08 	l.j 6638 <_dtoa_r+0x108c>
    661c:	a8 43 00 00 	l.ori r2,r3,0x0
    6620:	e4 04 18 00 	l.sfeq r4,r3
    6624:	10 00 02 41 	l.bf 6f28 <_dtoa_r+0x197c>
    6628:	9c a0 00 30 	l.addi r5,r0,48
    662c:	91 c2 00 00 	l.lbs r14,0(r2)
    6630:	ab 83 00 00 	l.ori r28,r3,0x0
    6634:	9c 63 ff ff 	l.addi r3,r3,-1
    6638:	bc 0e 00 39 	l.sfeqi r14,57
    663c:	13 ff ff f9 	l.bf 6620 <_dtoa_r+0x1074>
    6640:	9c 42 ff ff 	l.addi r2,r2,-1
    6644:	9c ee 00 01 	l.addi r7,r14,1
    6648:	03 ff fe f7 	l.j 6224 <_dtoa_r+0xc78>
    664c:	d8 03 38 00 	l.sb 0(r3),r7
    6650:	04 00 2e 90 	l.jal 12090 <__floatsidf>
    6654:	18 40 00 01 	l.movhi r2,0x1
    6658:	84 a1 00 20 	l.lwz r5,32(r1)
    665c:	84 c1 00 24 	l.lwz r6,36(r1)
    6660:	e0 6b 00 04 	l.or r3,r11,r0
    6664:	e0 8c 00 04 	l.or r4,r12,r0
    6668:	04 00 29 8a 	l.jal 10c90 <__muldf3>
    666c:	a8 42 25 e8 	l.ori r2,r2,0x25e8
    6670:	84 a2 00 00 	l.lwz r5,0(r2)
    6674:	84 c2 00 04 	l.lwz r6,4(r2)
    6678:	e0 6b 00 04 	l.or r3,r11,r0
    667c:	e0 8c 00 04 	l.or r4,r12,r0
    6680:	04 00 22 94 	l.jal f0d0 <__adddf3>
    6684:	15 00 00 00 	l.nop 0x0
    6688:	18 60 fc c0 	l.movhi r3,0xfcc0
    668c:	a8 4c 00 00 	l.ori r2,r12,0x0
    6690:	e1 cb 18 00 	l.add r14,r11,r3
    6694:	18 a0 00 01 	l.movhi r5,0x1
    6698:	84 61 00 20 	l.lwz r3,32(r1)
    669c:	84 81 00 24 	l.lwz r4,36(r1)
    66a0:	a8 a5 25 f0 	l.ori r5,r5,0x25f0
    66a4:	84 c5 00 04 	l.lwz r6,4(r5)
    66a8:	84 a5 00 00 	l.lwz r5,0(r5)
    66ac:	04 00 2b 6b 	l.jal 11458 <__subdf3>
    66b0:	15 00 00 00 	l.nop 0x0
    66b4:	a8 e2 00 00 	l.ori r7,r2,0x0
    66b8:	a8 ce 00 00 	l.ori r6,r14,0x0
    66bc:	e2 4b 00 04 	l.or r18,r11,r0
    66c0:	e2 6c 00 04 	l.or r19,r12,r0
    66c4:	e0 6b 00 04 	l.or r3,r11,r0
    66c8:	e0 8c 00 04 	l.or r4,r12,r0
    66cc:	e0 a6 00 04 	l.or r5,r6,r0
    66d0:	e0 c7 00 04 	l.or r6,r7,r0
    66d4:	04 00 28 85 	l.jal 108e8 <__gedf2>
    66d8:	d4 01 98 04 	l.sw 4(r1),r19
    66dc:	bd 4b 00 00 	l.sfgtsi r11,0
    66e0:	10 00 01 30 	l.bf 6ba0 <_dtoa_r+0x15f4>
    66e4:	86 61 00 04 	l.lwz r19,4(r1)
    66e8:	18 c0 80 00 	l.movhi r6,0x8000
    66ec:	a8 e2 00 00 	l.ori r7,r2,0x0
    66f0:	e1 ce 30 00 	l.add r14,r14,r6
    66f4:	e0 72 00 04 	l.or r3,r18,r0
    66f8:	e0 93 00 04 	l.or r4,r19,r0
    66fc:	a8 ce 00 00 	l.ori r6,r14,0x0
    6700:	e0 a6 00 04 	l.or r5,r6,r0
    6704:	e0 c7 00 04 	l.or r6,r7,r0
    6708:	04 00 28 eb 	l.jal 10ab4 <__ledf2>
    670c:	15 00 00 00 	l.nop 0x0
    6710:	bd 8b 00 00 	l.sfltsi r11,0
    6714:	0c 00 00 9a 	l.bnf 697c <_dtoa_r+0x13d0>
    6718:	86 81 00 60 	l.lwz r20,96(r1)
    671c:	9e 40 00 00 	l.addi r18,r0,0
    6720:	03 ff fe 14 	l.j 5f70 <_dtoa_r+0x9c4>
    6724:	a8 52 00 00 	l.ori r2,r18,0x0
    6728:	9c 60 00 1c 	l.addi r3,r0,28
    672c:	84 81 00 38 	l.lwz r4,56(r1)
    6730:	84 a1 00 10 	l.lwz r5,16(r1)
    6734:	e0 84 18 00 	l.add r4,r4,r3
    6738:	e0 a5 18 00 	l.add r5,r5,r3
    673c:	d4 01 20 38 	l.sw 56(r1),r4
    6740:	e2 d6 18 00 	l.add r22,r22,r3
    6744:	03 ff fe 7a 	l.j 612c <_dtoa_r+0xb80>
    6748:	d4 01 28 10 	l.sw 16(r1),r5
    674c:	84 61 00 48 	l.lwz r3,72(r1)
    6750:	bc 23 00 00 	l.sfnei r3,0
    6754:	10 00 01 55 	l.bf 6ca8 <_dtoa_r+0x16fc>
    6758:	bd b6 00 00 	l.sflesi r22,0
    675c:	85 c1 00 34 	l.lwz r14,52(r1)
    6760:	86 81 00 3c 	l.lwz r20,60(r1)
    6764:	aa ce 00 00 	l.ori r22,r14,0x0
    6768:	00 00 00 05 	l.j 677c <_dtoa_r+0x11d0>
    676c:	87 01 00 28 	l.lwz r24,40(r1)
    6770:	04 00 0b 14 	l.jal 93c0 <__multadd>
    6774:	15 00 00 00 	l.nop 0x0
    6778:	aa 8b 00 00 	l.ori r20,r11,0x0
    677c:	a8 92 00 00 	l.ori r4,r18,0x0
    6780:	a8 74 00 00 	l.ori r3,r20,0x0
    6784:	07 ff fa f2 	l.jal 534c <quorem>
    6788:	9d ce 00 01 	l.addi r14,r14,1
    678c:	e0 6e b0 02 	l.sub r3,r14,r22
    6790:	9d 6b 00 30 	l.addi r11,r11,48
    6794:	e5 83 c0 00 	l.sflts r3,r24
    6798:	db ee 5f ff 	l.sb -1(r14),r11
    679c:	9c c0 00 00 	l.addi r6,r0,0
    67a0:	9c a0 00 0a 	l.addi r5,r0,10
    67a4:	a8 94 00 00 	l.ori r4,r20,0x0
    67a8:	13 ff ff f2 	l.bf 6770 <_dtoa_r+0x11c4>
    67ac:	a8 7a 00 00 	l.ori r3,r26,0x0
    67b0:	87 81 00 28 	l.lwz r28,40(r1)
    67b4:	d4 01 a0 3c 	l.sw 60(r1),r20
    67b8:	e5 5c 30 00 	l.sfgts r28,r6
    67bc:	0c 00 02 52 	l.bnf 7104 <_dtoa_r+0x1b58>
    67c0:	ab 0b 00 00 	l.ori r24,r11,0x0
    67c4:	84 c1 00 34 	l.lwz r6,52(r1)
    67c8:	9d c0 00 00 	l.addi r14,r0,0
    67cc:	e3 86 e0 00 	l.add r28,r6,r28
    67d0:	9c a0 00 01 	l.addi r5,r0,1
    67d4:	84 81 00 3c 	l.lwz r4,60(r1)
    67d8:	04 00 0c ff 	l.jal 9bd4 <__lshift>
    67dc:	a8 7a 00 00 	l.ori r3,r26,0x0
    67e0:	a8 92 00 00 	l.ori r4,r18,0x0
    67e4:	a8 6b 00 00 	l.ori r3,r11,0x0
    67e8:	04 00 0d 5b 	l.jal 9d54 <__mcmp>
    67ec:	d4 01 58 3c 	l.sw 60(r1),r11
    67f0:	bd 4b 00 00 	l.sfgtsi r11,0
    67f4:	0c 00 00 25 	l.bnf 6888 <_dtoa_r+0x12dc>
    67f8:	bc 2b 00 00 	l.sfnei r11,0
    67fc:	90 bc ff ff 	l.lbs r5,-1(r28)
    6800:	9c 7c ff ff 	l.addi r3,r28,-1
    6804:	84 c1 00 34 	l.lwz r6,52(r1)
    6808:	00 00 00 08 	l.j 6828 <_dtoa_r+0x127c>
    680c:	a8 83 00 00 	l.ori r4,r3,0x0
    6810:	e4 03 30 00 	l.sfeq r3,r6
    6814:	10 00 01 e4 	l.bf 6fa4 <_dtoa_r+0x19f8>
    6818:	15 00 00 00 	l.nop 0x0
    681c:	90 a4 00 00 	l.lbs r5,0(r4)
    6820:	ab 83 00 00 	l.ori r28,r3,0x0
    6824:	9c 63 ff ff 	l.addi r3,r3,-1
    6828:	bc 05 00 39 	l.sfeqi r5,57
    682c:	13 ff ff f9 	l.bf 6810 <_dtoa_r+0x1264>
    6830:	9c 84 ff ff 	l.addi r4,r4,-1
    6834:	9c a5 00 01 	l.addi r5,r5,1
    6838:	d8 03 28 00 	l.sb 0(r3),r5
    683c:	a8 92 00 00 	l.ori r4,r18,0x0
    6840:	04 00 0a d2 	l.jal 9388 <_Bfree>
    6844:	a8 7a 00 00 	l.ori r3,r26,0x0
    6848:	bc 02 00 00 	l.sfeqi r2,0
    684c:	13 ff fe 76 	l.bf 6224 <_dtoa_r+0xc78>
    6850:	e0 60 70 02 	l.sub r3,r0,r14
    6854:	e0 6e 18 04 	l.or r3,r14,r3
    6858:	bd 63 00 00 	l.sfgesi r3,0
    685c:	13 ff fe 6f 	l.bf 6218 <_dtoa_r+0xc6c>
    6860:	e0 6e 10 05 	l.xor r3,r14,r2
    6864:	e0 80 18 02 	l.sub r4,r0,r3
    6868:	e0 64 18 04 	l.or r3,r4,r3
    686c:	bd 63 00 00 	l.sfgesi r3,0
    6870:	13 ff fe 6a 	l.bf 6218 <_dtoa_r+0xc6c>
    6874:	a8 8e 00 00 	l.ori r4,r14,0x0
    6878:	04 00 0a c4 	l.jal 9388 <_Bfree>
    687c:	a8 7a 00 00 	l.ori r3,r26,0x0
    6880:	03 ff fe 67 	l.j 621c <_dtoa_r+0xc70>
    6884:	a8 82 00 00 	l.ori r4,r2,0x0
    6888:	10 00 00 0a 	l.bf 68b0 <_dtoa_r+0x1304>
    688c:	9c 7c ff ff 	l.addi r3,r28,-1
    6890:	a7 18 00 01 	l.andi r24,r24,0x1
    6894:	bc 18 00 00 	l.sfeqi r24,0
    6898:	10 00 00 06 	l.bf 68b0 <_dtoa_r+0x1304>
    689c:	15 00 00 00 	l.nop 0x0
    68a0:	03 ff ff d9 	l.j 6804 <_dtoa_r+0x1258>
    68a4:	90 bc ff ff 	l.lbs r5,-1(r28)
    68a8:	ab 83 00 00 	l.ori r28,r3,0x0
    68ac:	9c 7c ff ff 	l.addi r3,r28,-1
    68b0:	90 83 00 00 	l.lbs r4,0(r3)
    68b4:	bc 04 00 30 	l.sfeqi r4,48
    68b8:	13 ff ff fc 	l.bf 68a8 <_dtoa_r+0x12fc>
    68bc:	a8 92 00 00 	l.ori r4,r18,0x0
    68c0:	03 ff ff e0 	l.j 6840 <_dtoa_r+0x1294>
    68c4:	15 00 00 00 	l.nop 0x0
    68c8:	84 c1 00 08 	l.lwz r6,8(r1)
    68cc:	bd a6 00 01 	l.sflesi r6,1
    68d0:	10 00 02 28 	l.bf 7170 <_dtoa_r+0x1bc4>
    68d4:	87 01 00 4c 	l.lwz r24,76(r1)
    68d8:	03 ff fe 04 	l.j 60e8 <_dtoa_r+0xb3c>
    68dc:	9d 60 00 01 	l.addi r11,r0,1
    68e0:	a8 a2 00 00 	l.ori r5,r2,0x0
    68e4:	d4 01 20 20 	l.sw 32(r1),r4
    68e8:	d4 01 28 24 	l.sw 36(r1),r5
    68ec:	03 ff fc 77 	l.j 5ac8 <_dtoa_r+0x51c>
    68f0:	9d c0 00 02 	l.addi r14,r0,2
    68f4:	9c a0 00 00 	l.addi r5,r0,0
    68f8:	bc 04 00 02 	l.sfeqi r4,2
    68fc:	13 ff fe a0 	l.bf 637c <_dtoa_r+0xdd0>
    6900:	d4 01 28 48 	l.sw 72(r1),r5
    6904:	9c 80 00 00 	l.addi r4,r0,0
    6908:	a8 7a 00 00 	l.ori r3,r26,0x0
    690c:	d4 1a 20 44 	l.sw 68(r26),r4
    6910:	04 00 0a 6f 	l.jal 92cc <_Balloc>
    6914:	9c 40 00 01 	l.addi r2,r0,1
    6918:	bd be 00 0e 	l.sflesi r30,14
    691c:	d4 01 58 34 	l.sw 52(r1),r11
    6920:	d4 1a 58 40 	l.sw 64(r26),r11
    6924:	10 00 00 03 	l.bf 6930 <_dtoa_r+0x1384>
    6928:	84 61 00 78 	l.lwz r3,120(r1)
    692c:	9c 40 00 00 	l.addi r2,r0,0
    6930:	a4 42 00 ff 	l.andi r2,r2,0xff
    6934:	bc 02 00 00 	l.sfeqi r2,0
    6938:	13 ff fe 68 	l.bf 62d8 <_dtoa_r+0xd2c>
    693c:	bd 63 00 00 	l.sfgesi r3,0
    6940:	0f ff fe 66 	l.bnf 62d8 <_dtoa_r+0xd2c>
    6944:	9c 40 00 00 	l.addi r2,r0,0
    6948:	9c 60 ff ff 	l.addi r3,r0,-1
    694c:	d4 01 18 28 	l.sw 40(r1),r3
    6950:	03 ff fd 62 	l.j 5ed8 <_dtoa_r+0x92c>
    6954:	d4 01 10 1c 	l.sw 28(r1),r2
    6958:	84 a1 00 40 	l.lwz r5,64(r1)
    695c:	84 81 00 3c 	l.lwz r4,60(r1)
    6960:	04 00 0c 3c 	l.jal 9a50 <__pow5mult>
    6964:	a8 7a 00 00 	l.ori r3,r26,0x0
    6968:	03 ff fd b8 	l.j 6048 <_dtoa_r+0xa9c>
    696c:	d4 01 58 3c 	l.sw 60(r1),r11
    6970:	87 c1 00 70 	l.lwz r30,112(r1)
    6974:	87 41 00 6c 	l.lwz r26,108(r1)
    6978:	86 81 00 60 	l.lwz r20,96(r1)
    697c:	03 ff fd 4c 	l.j 5eac <_dtoa_r+0x900>
    6980:	85 c1 00 64 	l.lwz r14,100(r1)
    6984:	e0 80 f0 02 	l.sub r4,r0,r30
    6988:	bc 04 00 00 	l.sfeqi r4,0
    698c:	10 00 01 62 	l.bf 6f14 <_dtoa_r+0x1968>
    6990:	a8 a2 00 00 	l.ori r5,r2,0x0
    6994:	a4 a4 00 0f 	l.andi r5,r4,0xf
    6998:	18 60 00 01 	l.movhi r3,0x1
    699c:	b8 a5 00 03 	l.slli r5,r5,0x3
    69a0:	a8 63 26 74 	l.ori r3,r3,0x2674
    69a4:	a8 e2 00 00 	l.ori r7,r2,0x0
    69a8:	a8 d4 00 00 	l.ori r6,r20,0x0
    69ac:	b8 44 00 84 	l.srai r2,r4,0x4
    69b0:	e0 a5 18 00 	l.add r5,r5,r3
    69b4:	e0 66 00 04 	l.or r3,r6,r0
    69b8:	e0 87 00 04 	l.or r4,r7,r0
    69bc:	84 c5 00 04 	l.lwz r6,4(r5)
    69c0:	84 a5 00 00 	l.lwz r5,0(r5)
    69c4:	04 00 28 b3 	l.jal 10c90 <__muldf3>
    69c8:	15 00 00 00 	l.nop 0x0
    69cc:	bc 02 00 00 	l.sfeqi r2,0
    69d0:	d4 01 58 20 	l.sw 32(r1),r11
    69d4:	d4 01 60 24 	l.sw 36(r1),r12
    69d8:	13 ff fc 58 	l.bf 5b38 <_dtoa_r+0x58c>
    69dc:	9d c0 00 02 	l.addi r14,r0,2
    69e0:	1a 40 00 01 	l.movhi r18,0x1
    69e4:	aa 52 26 4c 	l.ori r18,r18,0x264c
    69e8:	a4 62 00 01 	l.andi r3,r2,0x1
    69ec:	bc 03 00 00 	l.sfeqi r3,0
    69f0:	e0 6b 00 04 	l.or r3,r11,r0
    69f4:	e0 8c 00 04 	l.or r4,r12,r0
    69f8:	10 00 00 06 	l.bf 6a10 <_dtoa_r+0x1464>
    69fc:	b8 42 00 81 	l.srai r2,r2,0x1
    6a00:	84 b2 00 00 	l.lwz r5,0(r18)
    6a04:	84 d2 00 04 	l.lwz r6,4(r18)
    6a08:	04 00 28 a2 	l.jal 10c90 <__muldf3>
    6a0c:	9d ce 00 01 	l.addi r14,r14,1
    6a10:	bc 22 00 00 	l.sfnei r2,0
    6a14:	13 ff ff f5 	l.bf 69e8 <_dtoa_r+0x143c>
    6a18:	9e 52 00 08 	l.addi r18,r18,8
    6a1c:	d4 01 58 20 	l.sw 32(r1),r11
    6a20:	d4 01 60 24 	l.sw 36(r1),r12
    6a24:	03 ff fc 46 	l.j 5b3c <_dtoa_r+0x590>
    6a28:	84 41 00 44 	l.lwz r2,68(r1)
    6a2c:	9c 80 00 00 	l.addi r4,r0,0
    6a30:	03 ff fb e5 	l.j 59c4 <_dtoa_r+0x418>
    6a34:	d4 01 20 48 	l.sw 72(r1),r4
    6a38:	9e 88 ff ff 	l.addi r20,r8,-1
    6a3c:	b8 74 00 03 	l.slli r3,r20,0x3
    6a40:	a8 a5 26 74 	l.ori r5,r5,0x2674
    6a44:	a8 e2 00 00 	l.ori r7,r2,0x0
    6a48:	e0 63 28 00 	l.add r3,r3,r5
    6a4c:	a8 ce 00 00 	l.ori r6,r14,0x0
    6a50:	e0 a6 00 04 	l.or r5,r6,r0
    6a54:	e0 c7 00 04 	l.or r6,r7,r0
    6a58:	84 83 00 04 	l.lwz r4,4(r3)
    6a5c:	84 63 00 00 	l.lwz r3,0(r3)
    6a60:	04 00 28 8c 	l.jal 10c90 <__muldf3>
    6a64:	d4 01 40 04 	l.sw 4(r1),r8
    6a68:	84 61 00 20 	l.lwz r3,32(r1)
    6a6c:	84 81 00 24 	l.lwz r4,36(r1)
    6a70:	d4 01 58 2c 	l.sw 44(r1),r11
    6a74:	d4 01 60 30 	l.sw 48(r1),r12
    6a78:	04 00 2d 5b 	l.jal 11fe4 <__fixdfsi>
    6a7c:	15 00 00 00 	l.nop 0x0
    6a80:	84 c1 00 34 	l.lwz r6,52(r1)
    6a84:	a8 6b 00 00 	l.ori r3,r11,0x0
    6a88:	a8 4b 00 00 	l.ori r2,r11,0x0
    6a8c:	04 00 2d 81 	l.jal 12090 <__floatsidf>
    6a90:	9f 86 00 01 	l.addi r28,r6,1
    6a94:	84 61 00 20 	l.lwz r3,32(r1)
    6a98:	84 81 00 24 	l.lwz r4,36(r1)
    6a9c:	e0 ab 00 04 	l.or r5,r11,r0
    6aa0:	e0 cc 00 04 	l.or r6,r12,r0
    6aa4:	04 00 2a 6d 	l.jal 11458 <__subdf3>
    6aa8:	9c 42 00 30 	l.addi r2,r2,48
    6aac:	85 01 00 04 	l.lwz r8,4(r1)
    6ab0:	84 61 00 34 	l.lwz r3,52(r1)
    6ab4:	bc 28 00 01 	l.sfnei r8,1
    6ab8:	e2 4b 00 04 	l.or r18,r11,r0
    6abc:	e2 6c 00 04 	l.or r19,r12,r0
    6ac0:	0c 00 00 23 	l.bnf 6b4c <_dtoa_r+0x15a0>
    6ac4:	d8 03 10 00 	l.sb 0(r3),r2
    6ac8:	84 81 00 34 	l.lwz r4,52(r1)
    6acc:	aa dc 00 00 	l.ori r22,r28,0x0
    6ad0:	e1 c4 40 00 	l.add r14,r4,r8
    6ad4:	18 40 00 01 	l.movhi r2,0x1
    6ad8:	e0 72 00 04 	l.or r3,r18,r0
    6adc:	e0 93 00 04 	l.or r4,r19,r0
    6ae0:	a8 42 25 e0 	l.ori r2,r2,0x25e0
    6ae4:	84 a2 00 00 	l.lwz r5,0(r2)
    6ae8:	84 c2 00 04 	l.lwz r6,4(r2)
    6aec:	04 00 28 69 	l.jal 10c90 <__muldf3>
    6af0:	9e d6 00 01 	l.addi r22,r22,1
    6af4:	e2 4b 00 04 	l.or r18,r11,r0
    6af8:	e2 6c 00 04 	l.or r19,r12,r0
    6afc:	e0 6b 00 04 	l.or r3,r11,r0
    6b00:	e0 8c 00 04 	l.or r4,r12,r0
    6b04:	04 00 2d 38 	l.jal 11fe4 <__fixdfsi>
    6b08:	d4 01 98 04 	l.sw 4(r1),r19
    6b0c:	a8 6b 00 00 	l.ori r3,r11,0x0
    6b10:	04 00 2d 60 	l.jal 12090 <__floatsidf>
    6b14:	a8 4b 00 00 	l.ori r2,r11,0x0
    6b18:	86 61 00 04 	l.lwz r19,4(r1)
    6b1c:	e0 72 00 04 	l.or r3,r18,r0
    6b20:	e0 93 00 04 	l.or r4,r19,r0
    6b24:	e0 ab 00 04 	l.or r5,r11,r0
    6b28:	e0 cc 00 04 	l.or r6,r12,r0
    6b2c:	04 00 2a 4b 	l.jal 11458 <__subdf3>
    6b30:	9c 42 00 30 	l.addi r2,r2,48
    6b34:	e4 36 70 00 	l.sfne r22,r14
    6b38:	e2 4b 00 04 	l.or r18,r11,r0
    6b3c:	e2 6c 00 04 	l.or r19,r12,r0
    6b40:	13 ff ff e5 	l.bf 6ad4 <_dtoa_r+0x1528>
    6b44:	db f6 17 ff 	l.sb -1(r22),r2
    6b48:	e3 9c a0 00 	l.add r28,r28,r20
    6b4c:	18 40 00 01 	l.movhi r2,0x1
    6b50:	84 61 00 2c 	l.lwz r3,44(r1)
    6b54:	84 81 00 30 	l.lwz r4,48(r1)
    6b58:	a8 42 25 f8 	l.ori r2,r2,0x25f8
    6b5c:	84 a2 00 00 	l.lwz r5,0(r2)
    6b60:	84 c2 00 04 	l.lwz r6,4(r2)
    6b64:	04 00 21 5b 	l.jal f0d0 <__adddf3>
    6b68:	d4 01 98 04 	l.sw 4(r1),r19
    6b6c:	86 61 00 04 	l.lwz r19,4(r1)
    6b70:	e0 6b 00 04 	l.or r3,r11,r0
    6b74:	e0 8c 00 04 	l.or r4,r12,r0
    6b78:	e0 b2 00 04 	l.or r5,r18,r0
    6b7c:	e0 d3 00 04 	l.or r6,r19,r0
    6b80:	04 00 27 cd 	l.jal 10ab4 <__ledf2>
    6b84:	15 00 00 00 	l.nop 0x0
    6b88:	bd 8b 00 00 	l.sfltsi r11,0
    6b8c:	0c 00 00 ec 	l.bnf 6f3c <_dtoa_r+0x1990>
    6b90:	86 61 00 04 	l.lwz r19,4(r1)
    6b94:	91 dc ff ff 	l.lbs r14,-1(r28)
    6b98:	03 ff fe 9e 	l.j 6610 <_dtoa_r+0x1064>
    6b9c:	87 c1 00 68 	l.lwz r30,104(r1)
    6ba0:	9e 40 00 00 	l.addi r18,r0,0
    6ba4:	03 ff fd 92 	l.j 61ec <_dtoa_r+0xc40>
    6ba8:	a8 52 00 00 	l.ori r2,r18,0x0
    6bac:	04 00 0c 6a 	l.jal 9d54 <__mcmp>
    6bb0:	84 61 00 3c 	l.lwz r3,60(r1)
    6bb4:	bd 6b 00 00 	l.sfgesi r11,0
    6bb8:	13 ff fd 72 	l.bf 6180 <_dtoa_r+0xbd4>
    6bbc:	84 a1 00 28 	l.lwz r5,40(r1)
    6bc0:	9c a0 00 0a 	l.addi r5,r0,10
    6bc4:	9c c0 00 00 	l.addi r6,r0,0
    6bc8:	84 81 00 3c 	l.lwz r4,60(r1)
    6bcc:	a8 7a 00 00 	l.ori r3,r26,0x0
    6bd0:	04 00 09 fc 	l.jal 93c0 <__multadd>
    6bd4:	9f de ff ff 	l.addi r30,r30,-1
    6bd8:	84 a1 00 48 	l.lwz r5,72(r1)
    6bdc:	bc 05 00 00 	l.sfeqi r5,0
    6be0:	0c 00 00 1c 	l.bnf 6c50 <_dtoa_r+0x16a4>
    6be4:	d4 01 58 3c 	l.sw 60(r1),r11
    6be8:	84 61 00 08 	l.lwz r3,8(r1)
    6bec:	bd 43 00 02 	l.sfgtsi r3,2
    6bf0:	10 00 00 04 	l.bf 6c00 <_dtoa_r+0x1654>
    6bf4:	9c 60 00 01 	l.addi r3,r0,1
    6bf8:	84 81 00 48 	l.lwz r4,72(r1)
    6bfc:	a8 64 00 00 	l.ori r3,r4,0x0
    6c00:	a4 63 00 ff 	l.andi r3,r3,0xff
    6c04:	bc 03 00 00 	l.sfeqi r3,0
    6c08:	10 00 00 05 	l.bf 6c1c <_dtoa_r+0x1670>
    6c0c:	84 a1 00 50 	l.lwz r5,80(r1)
    6c10:	bd a5 00 00 	l.sflesi r5,0
    6c14:	13 ff fd 67 	l.bf 61b0 <_dtoa_r+0xc04>
    6c18:	d4 01 28 28 	l.sw 40(r1),r5
    6c1c:	84 c1 00 50 	l.lwz r6,80(r1)
    6c20:	03 ff fe cf 	l.j 675c <_dtoa_r+0x11b0>
    6c24:	d4 01 30 28 	l.sw 40(r1),r6
    6c28:	9f 00 00 00 	l.addi r24,r0,0
    6c2c:	84 72 00 10 	l.lwz r3,16(r18)
    6c30:	9c 63 00 04 	l.addi r3,r3,4
    6c34:	b8 63 00 02 	l.slli r3,r3,0x2
    6c38:	e0 72 18 00 	l.add r3,r18,r3
    6c3c:	04 00 0a 75 	l.jal 9610 <__hi0bits>
    6c40:	84 63 00 00 	l.lwz r3,0(r3)
    6c44:	9c 60 00 20 	l.addi r3,r0,32
    6c48:	03 ff fd 28 	l.j 60e8 <_dtoa_r+0xb3c>
    6c4c:	e1 63 58 02 	l.sub r11,r3,r11
    6c50:	9c c0 00 00 	l.addi r6,r0,0
    6c54:	a8 82 00 00 	l.ori r4,r2,0x0
    6c58:	a8 7a 00 00 	l.ori r3,r26,0x0
    6c5c:	04 00 09 d9 	l.jal 93c0 <__multadd>
    6c60:	9c a0 00 0a 	l.addi r5,r0,10
    6c64:	84 c1 00 08 	l.lwz r6,8(r1)
    6c68:	a8 4b 00 00 	l.ori r2,r11,0x0
    6c6c:	bd 46 00 02 	l.sfgtsi r6,2
    6c70:	10 00 00 03 	l.bf 6c7c <_dtoa_r+0x16d0>
    6c74:	9c 60 00 01 	l.addi r3,r0,1
    6c78:	9c 60 00 00 	l.addi r3,r0,0
    6c7c:	a4 63 00 ff 	l.andi r3,r3,0xff
    6c80:	bc 03 00 00 	l.sfeqi r3,0
    6c84:	10 00 00 07 	l.bf 6ca0 <_dtoa_r+0x16f4>
    6c88:	84 81 00 50 	l.lwz r4,80(r1)
    6c8c:	84 61 00 50 	l.lwz r3,80(r1)
    6c90:	bd a3 00 00 	l.sflesi r3,0
    6c94:	13 ff fd 47 	l.bf 61b0 <_dtoa_r+0xc04>
    6c98:	d4 01 18 28 	l.sw 40(r1),r3
    6c9c:	84 81 00 50 	l.lwz r4,80(r1)
    6ca0:	9f 84 ff ff 	l.addi r28,r4,-1
    6ca4:	bd b6 00 00 	l.sflesi r22,0
    6ca8:	10 00 00 06 	l.bf 6cc0 <_dtoa_r+0x1714>
    6cac:	a8 82 00 00 	l.ori r4,r2,0x0
    6cb0:	a8 b6 00 00 	l.ori r5,r22,0x0
    6cb4:	04 00 0b c8 	l.jal 9bd4 <__lshift>
    6cb8:	a8 7a 00 00 	l.ori r3,r26,0x0
    6cbc:	a8 4b 00 00 	l.ori r2,r11,0x0
    6cc0:	bc 18 00 00 	l.sfeqi r24,0
    6cc4:	0c 00 00 ed 	l.bnf 7078 <_dtoa_r+0x1acc>
    6cc8:	a8 e2 00 00 	l.ori r7,r2,0x0
    6ccc:	86 c1 00 34 	l.lwz r22,52(r1)
    6cd0:	a5 ce 00 01 	l.andi r14,r14,0x1
    6cd4:	e3 96 e0 00 	l.add r28,r22,r28
    6cd8:	d4 01 70 1c 	l.sw 28(r1),r14
    6cdc:	d4 01 f0 28 	l.sw 40(r1),r30
    6ce0:	d4 01 e0 10 	l.sw 16(r1),r28
    6ce4:	ab c7 00 00 	l.ori r30,r7,0x0
    6ce8:	85 c1 00 3c 	l.lwz r14,60(r1)
    6cec:	a8 92 00 00 	l.ori r4,r18,0x0
    6cf0:	07 ff f9 97 	l.jal 534c <quorem>
    6cf4:	a8 6e 00 00 	l.ori r3,r14,0x0
    6cf8:	a8 82 00 00 	l.ori r4,r2,0x0
    6cfc:	a8 6e 00 00 	l.ori r3,r14,0x0
    6d00:	ab 8b 00 00 	l.ori r28,r11,0x0
    6d04:	04 00 0c 14 	l.jal 9d54 <__mcmp>
    6d08:	9f 0b 00 30 	l.addi r24,r11,48
    6d0c:	a8 be 00 00 	l.ori r5,r30,0x0
    6d10:	a8 7a 00 00 	l.ori r3,r26,0x0
    6d14:	a8 92 00 00 	l.ori r4,r18,0x0
    6d18:	04 00 0c 2f 	l.jal 9dd4 <__mdiff>
    6d1c:	aa 8b 00 00 	l.ori r20,r11,0x0
    6d20:	84 6b 00 0c 	l.lwz r3,12(r11)
    6d24:	bc 23 00 00 	l.sfnei r3,0
    6d28:	10 00 00 41 	l.bf 6e2c <_dtoa_r+0x1880>
    6d2c:	a8 ab 00 00 	l.ori r5,r11,0x0
    6d30:	a8 8b 00 00 	l.ori r4,r11,0x0
    6d34:	a8 6e 00 00 	l.ori r3,r14,0x0
    6d38:	04 00 0c 07 	l.jal 9d54 <__mcmp>
    6d3c:	d4 01 58 04 	l.sw 4(r1),r11
    6d40:	84 a1 00 04 	l.lwz r5,4(r1)
    6d44:	a8 85 00 00 	l.ori r4,r5,0x0
    6d48:	a8 7a 00 00 	l.ori r3,r26,0x0
    6d4c:	04 00 09 8f 	l.jal 9388 <_Bfree>
    6d50:	d4 01 58 04 	l.sw 4(r1),r11
    6d54:	85 61 00 04 	l.lwz r11,4(r1)
    6d58:	84 81 00 08 	l.lwz r4,8(r1)
    6d5c:	e0 6b 20 04 	l.or r3,r11,r4
    6d60:	bc 23 00 00 	l.sfnei r3,0
    6d64:	10 00 00 06 	l.bf 6d7c <_dtoa_r+0x17d0>
    6d68:	bd 94 00 00 	l.sfltsi r20,0
    6d6c:	84 a1 00 1c 	l.lwz r5,28(r1)
    6d70:	bc 25 00 00 	l.sfnei r5,0
    6d74:	0c 00 00 e6 	l.bnf 710c <_dtoa_r+0x1b60>
    6d78:	bd 94 00 00 	l.sfltsi r20,0
    6d7c:	10 00 00 9e 	l.bf 6ff4 <_dtoa_r+0x1a48>
    6d80:	84 c1 00 08 	l.lwz r6,8(r1)
    6d84:	e2 94 30 04 	l.or r20,r20,r6
    6d88:	bc 34 00 00 	l.sfnei r20,0
    6d8c:	10 00 00 06 	l.bf 6da4 <_dtoa_r+0x17f8>
    6d90:	bd ab 00 00 	l.sflesi r11,0
    6d94:	84 61 00 1c 	l.lwz r3,28(r1)
    6d98:	bc 23 00 00 	l.sfnei r3,0
    6d9c:	0c 00 00 96 	l.bnf 6ff4 <_dtoa_r+0x1a48>
    6da0:	bd ab 00 00 	l.sflesi r11,0
    6da4:	0c 00 00 cb 	l.bnf 70d0 <_dtoa_r+0x1b24>
    6da8:	84 a1 00 10 	l.lwz r5,16(r1)
    6dac:	9e 96 00 01 	l.addi r20,r22,1
    6db0:	d8 16 c0 00 	l.sb 0(r22),r24
    6db4:	e4 05 b0 00 	l.sfeq r5,r22
    6db8:	10 00 00 cd 	l.bf 70ec <_dtoa_r+0x1b40>
    6dbc:	ab 94 00 00 	l.ori r28,r20,0x0
    6dc0:	a8 8e 00 00 	l.ori r4,r14,0x0
    6dc4:	9c c0 00 00 	l.addi r6,r0,0
    6dc8:	9c a0 00 0a 	l.addi r5,r0,10
    6dcc:	04 00 09 7d 	l.jal 93c0 <__multadd>
    6dd0:	a8 7a 00 00 	l.ori r3,r26,0x0
    6dd4:	e4 22 f0 00 	l.sfne r2,r30
    6dd8:	a9 cb 00 00 	l.ori r14,r11,0x0
    6ddc:	9c c0 00 00 	l.addi r6,r0,0
    6de0:	9c a0 00 0a 	l.addi r5,r0,10
    6de4:	a8 82 00 00 	l.ori r4,r2,0x0
    6de8:	0c 00 00 0c 	l.bnf 6e18 <_dtoa_r+0x186c>
    6dec:	a8 7a 00 00 	l.ori r3,r26,0x0
    6df0:	04 00 09 74 	l.jal 93c0 <__multadd>
    6df4:	aa d4 00 00 	l.ori r22,r20,0x0
    6df8:	a8 9e 00 00 	l.ori r4,r30,0x0
    6dfc:	9c c0 00 00 	l.addi r6,r0,0
    6e00:	9c a0 00 0a 	l.addi r5,r0,10
    6e04:	a8 7a 00 00 	l.ori r3,r26,0x0
    6e08:	04 00 09 6e 	l.jal 93c0 <__multadd>
    6e0c:	a8 4b 00 00 	l.ori r2,r11,0x0
    6e10:	03 ff ff b7 	l.j 6cec <_dtoa_r+0x1740>
    6e14:	ab cb 00 00 	l.ori r30,r11,0x0
    6e18:	04 00 09 6a 	l.jal 93c0 <__multadd>
    6e1c:	aa d4 00 00 	l.ori r22,r20,0x0
    6e20:	a8 4b 00 00 	l.ori r2,r11,0x0
    6e24:	03 ff ff b2 	l.j 6cec <_dtoa_r+0x1740>
    6e28:	ab cb 00 00 	l.ori r30,r11,0x0
